((lp0
((lp1
I9271
aI2528
aI778
aI155
aI7354
aI6245
aI7643
aI9110
aI7268
aI9104
aI913
aI7149
aI4146
aI7825
aI6206
aI2823
aI392
aI8649
aI441
aI3358
aI8217
aI4916
aI6112
aI7290
aI393
aI8658
aI1393
aI9844
aI9019
aI5570
aI3171
aI26
aI5235
aI8020
aI5514
aI2114
aI8785
aI9065
aI9494
aI7616
aI5097
aI2690
aI690
aI2715
aI6625
aI6037
aI8305
aI325
aI7648
aI130
aI10568
aI2032
aI1043
aI3232
aI391
aI873
aI2395
aI10496
aI2537
aI6664
aI4260
aI6281
aI9566
aI6215
aI10221
aI6139
aI8075
aI2188
aI6302
aI7180
aI6059
aI854
aI1928
aI4632
aI10327
aI6579
aI8236
aI932
aI1006
aI1051
aI9105
aI4212
aI1271
aI3804
aI6531
aI8300
aI6375
aI5503
aI5399
aI1999
aI5842
aI2990
aI4049
aI592
aI3069
aI6351
aI577
aI4160
aI5371
aI2993
aI4461
aI7847
aI1642
aI766
aI5593
aI7669
aI686
aI2677
aI1131
aI2441
aI7455
aI10441
aI4422
aI5139
aI3952
aI9418
aI7176
aI3274
aI3039
aI3980
aI9491
aI4983
aI7060
aI3081
aI4753
aI1260
aI8564
aI3092
aI9383
aI5169
aI6990
aI2894
aI6846
aI10629
aI2958
aI8549
aI2653
aI7973
aI3251
aI1270
aI223
aI4376
aI10507
aI7621
aI248
aI7578
aI3800
aI6956
aI5921
aI2416
aI3667
aI1567
aI8372
aI5660
aI6624
aI2578
aI10252
aI5316
aI10312
aI10596
aI6348
aI9033
aI4437
aI8249
aI9351
aI10062
aI10055
aI4069
aI5989
aI588
aI7528
aI5237
aI852
aI326
aI4971
aI5040
aI7952
aI5800
aI2196
aI2934
aI1684
aI2364
aI353
aI7644
aI5344
aI4910
aI9138
aI4890
aI1375
aI7772
aI10135
aI835
aI7383
aI3327
aI6778
aI1722
aI4556
aI992
aI7100
aI1458
aI10518
aI5212
aI2141
aI9261
aI2730
aI9996
aI8410
aI10
aI3653
aI6874
aI5392
aI3088
aI12
aI102
aI9723
aI6457
aI3313
aI1116
aI3398
aI8493
aI2822
aI7543
aI6307
aI3671
aI6388
aI10499
aI5209
aI9645
aI5580
aI9256
aI9341
aI6518
aI5084
aI3149
aI3638
aI7141
aI6535
aI7969
aI7799
aI5605
aI3343
aI6585
aI9969
aI6058
aI823
aI6928
aI3861
aI10391
aI10557
aI10420
aI5857
aI3153
aI6612
aI2983
aI7631
aI3150
aI5125
aI1688
aI9895
aI3867
aI2705
aI4962
aI7263
aI3868
aI10166
aI1972
aI2775
aI8632
aI3913
aI919
aI6740
aI2864
aI2220
aI8742
aI6818
aI2229
aI3057
aI1707
aI9721
aI2445
aI4189
aI6263
aI6100
aI4913
aI6427
aI3158
aI7532
aI4467
aI2002
aI2632
aI5666
aI8495
aI7865
aI10434
aI5249
aI8897
aI5254
aI1495
aI3946
aI1248
aI7470
aI4668
aI5465
aI374
aI7562
aI1173
aI8363
aI97
aI9374
aI3654
aI10480
aI3784
aI1623
aI9279
aI10524
aI8318
aI2458
aI7326
aI9596
aI3331
aI7882
aI7684
aI4885
aI8454
aI8635
aI5894
aI1611
aI9630
aI1615
aI8207
aI6254
aI756
aI5953
aI531
aI1021
aI2380
aI6007
aI8370
aI4661
aI7240
aI1163
aI9490
aI8051
aI3328
aI3472
aI1960
aI7081
aI6283
aI10298
aI8692
aI937
aI5053
aI8308
aI6216
aI3018
aI926
aI8566
aI10288
aI4266
aI7058
aI1667
aI8929
aI9480
aI9165
aI6395
aI918
aI10297
aI2714
aI9
aI1195
aI2281
aI3474
aI2369
aI8423
aI3699
aI10551
aI8118
aI3931
aI6122
aI1786
aI689
aI6115
aI9437
aI8150
aI594
aI6291
aI1976
aI5724
aI8098
aI1428
aI2696
aI8925
aI9521
aI7725
aI1692
aI2510
aI10593
aI8821
aI670
aI3469
aI68
aI7404
aI6813
aI10658
aI9465
aI9659
aI3176
aI8421
aI10375
aI7373
aI1886
aI2851
aI3537
aI6888
aI8136
aI3880
aI9847
aI4984
aI2055
aI10329
aI10387
aI3567
aI4223
aI6430
aI3596
aI7157
aI9760
aI3395
aI9872
aI6851
aI1154
aI4927
aI10455
aI4560
aI10031
aI3912
aI6513
aI3664
aI6020
aI9458
aI8084
aI7852
aI8294
aI4561
aI879
aI1711
aI6293
aI4853
aI10077
aI220
aI3239
aI9479
aI8693
aI3860
aI2524
aI9693
aI694
aI120
aI9398
aI492
aI1890
aI8753
aI658
aI10631
aI1335
aI3729
aI365
aI3697
aI10176
aI6717
aI264
aI9162
aI7225
aI2283
aI522
aI1767
aI5672
aI3746
aI2693
aI9792
aI10409
aI10080
aI1493
aI9727
aI7277
aI3085
aI8057
aI8208
aI1938
aI5744
aI2974
aI86
aI8114
aI7943
aI3808
aI8072
aI9826
aI6232
aI10195
aI6731
aI6044
aI3108
aI2020
aI1665
aI5994
aI3790
aI6920
aI8387
aI8819
aI251
aI9123
aI7889
aI563
aI2980
aI9716
aI7215
aI4527
aI2259
aI10296
aI7881
aI5280
aI3220
aI6861
aI8887
aI10099
aI6268
aI1728
aI4468
aI4832
aI8756
aI4164
aI1779
aI3346
aI4242
aI10282
aI8412
aI783
aI5810
aI9048
aI2147
aI8679
aI5445
aI6948
aI2080
aI2753
aI5090
aI6692
aI367
aI2831
aI4926
aI525
aI2613
aI737
aI10314
aI1172
aI8296
aI7711
aI4314
aI2818
aI3894
aI5334
aI3627
aI9013
aI3436
aI356
aI1078
aI516
aI2051
aI10096
aI9600
aI3249
aI460
aI2634
aI8480
aI9204
aI1968
aI9781
aI109
aI5124
aI10381
aI4181
aI6854
aI7133
aI2668
aI10610
aI33
aI8356
aI3196
aI6287
aI4368
aI9606
aI5366
aI4033
aI7697
aI4947
aI7800
aI620
aI2986
aI7403
aI8361
aI2697
aI5375
aI4364
aI1066
aI9059
aI5026
aI907
aI4357
aI3865
aI2799
aI3623
aI1716
aI4997
aI2345
aI10322
aI8435
aI10638
aI3611
aI7981
aI9144
aI6432
aI10541
aI881
aI3886
aI2415
aI5806
aI9568
aI9457
aI8845
aI9896
aI8172
aI9387
aI1095
aI6561
aI5703
aI6033
aI6439
aI1836
aI8425
aI9974
aI10657
aI7196
aI810
aI8392
aI7337
aI2881
aI8168
aI10182
aI409
aI8310
aI3710
aI7574
aI6631
aI1637
aI3996
aI6974
aI8017
aI504
aI6569
aI5880
aI1724
aI10223
aI2217
aI8636
aI2156
aI9231
aI1281
aI6709
aI4232
aI2274
aI5711
aI7974
aI2977
aI3159
aI94
aI4737
aI4333
aI1687
aI7233
aI3203
aI4934
aI6374
aI8766
aI5837
aI166
aI4255
aI7709
aI1963
aI192
aI10547
aI4648
aI4653
aI8138
aI3990
aI5253
aI9126
aI8073
aI5039
aI2118
aI2501
aI3229
aI1440
aI10586
aI3454
aI10102
aI3209
aI4825
aI2139
aI882
aI3182
aI8696
aI5444
aI2075
aI7918
aI1709
aI3854
aI2824
aI5608
aI1739
aI6931
aI5726
aI2574
aI342
aI5739
aI2087
aI6575
aI2750
aI4891
aI5356
aI972
aI10540
aI1147
aI4595
aI3340
aI1108
aI6904
aI4307
aI9217
aI6193
aI2294
aI207
aI7465
aI2348
aI9055
aI8910
aI8066
aI2852
aI4996
aI8582
aI1499
aI8268
aI3798
aI9819
aI6542
aI653
aI9932
aI8746
aI7226
aI1236
aI9817
aI316
aI10032
aI8732
aI568
aI6577
aI8790
aI5262
aI7423
aI3941
aI1170
aI607
aI3143
aI6900
aI7462
aI1323
aI10615
aI7565
aI5863
aI7377
aI1666
aI9141
aI10436
aI1243
aI8741
aI6054
aI4298
aI6146
aI5478
aI7702
aI2184
aI234
aI169
aI8913
aI7306
aI9815
aI6836
aI3420
aI7704
aI4664
aI4465
aI9117
aI1275
aI10194
aI3726
aI3347
aI1052
aI8840
aI6143
aI7919
aI1602
aI5897
aI10108
aI1459
aI10380
aI8013
aI4559
aI3145
aI5661
aI2721
aI7876
aI1591
aI6937
aI5736
aI5192
aI9154
aI5141
aI8225
aI7668
aI9797
aI2344
aI9195
aI3686
aI878
aI10456
aI2121
aI5238
aI7558
aI3401
aI3019
aI7427
aI2206
aI7979
aI5160
aI4089
aI6914
aI1201
aI3599
aI4248
aI8473
aI8229
aI3523
aI4481
aI8401
aI7667
aI5876
aI6235
aI5161
aI2140
aI6623
aI8589
aI5537
aI6407
aI9867
aI2716
aI6669
aI1057
aI5279
aI8789
aI4351
aI1697
aI5242
aI2450
aI591
aI2680
aI3211
aI3297
aI6484
aI1703
aI650
aI3337
aI10608
aI3017
aI4415
aI6101
aI5634
aI1586
aI7759
aI287
aI10124
aI6895
aI2126
aI7962
aI9774
aI10486
aI3568
aI9419
aI7418
aI9133
aI8916
aI4383
aI13
aI2014
aI1465
aI7699
aI2012
aI4562
aI1120
aI684
aI569
aI1729
aI4452
aI8904
aI313
aI3024
aI7638
aI9740
aI7632
aI1488
aI5589
aI2606
aI10459
aI7895
aI3785
aI7999
aI2691
aI5170
aI6151
aI6160
aI3882
aI5466
aI1921
aI5127
aI366
aI7887
aI10571
aI4811
aI2310
aI4620
aI221
aI624
aI10490
aI4055
aI5669
aI6986
aI9127
aI5886
aI4547
aI6580
aI4634
aI3312
aI7828
aI4834
aI4202
aI9325
aI10544
aI2007
aI4030
aI7256
aI4338
aI380
aI8891
aI8442
aI239
aI4430
aI5314
aI4063
aI3094
aI7636
aI1896
aI8949
aI9986
aI3261
aI6544
aI10262
aI5284
aI8607
aI9936
aI1634
aI1843
aI9318
aI8828
aI1956
aI1449
aI9102
aI3027
aI6918
aI3577
aI6922
aI9973
aI3709
aI1309
aI439
aI9282
aI9627
aI10339
aI4658
aI22
aI1124
aI4066
aI9486
aI6443
aI3734
aI5121
aI651
aI4017
aI9394
aI8768
aI2737
aI6524
aI518
aI6075
aI1519
aI1202
aI10412
aI10337
aI6515
aI4751
aI8069
aI4306
aI9136
aI6260
aI3072
aI5522
aI7083
aI8881
aI2261
aI3759
aI9811
aI1708
aI9012
aI4469
aI8556
aI9063
aI139
aI9917
aI5502
aI4250
aI6872
aI9456
aI8275
aI1231
aI7871
aI6790
aI5104
aI2550
aI10249
aI6789
aI4417
aI1247
aI1422
aI8922
aI8163
aI115
aI9572
aI2695
aI4244
aI895
aI4176
aI9940
aI9734
aI7043
aI5145
aI4781
aI5294
aI272
aI8543
aI3840
aI2284
aI736
aI8028
aI2471
aI9581
aI3087
aI8948
aI9950
aI7923
aI6489
aI8965
aI177
aI3828
aI7381
aI9487
aI1351
aI5387
aI5717
aI4365
aI8204
aI8872
aI7736
aI84
aI8350
aI8730
aI6082
aI2533
aI5542
aI2172
aI8584
aI4178
aI7271
aI9975
aI4568
aI2228
aI8257
aI5829
aI6132
aI6024
aI8458
aI6667
aI2461
aI10034
aI156
aI10110
aI3558
aI90
aI4687
aI7794
aI5272
aI3288
aI3160
aI128
aI7231
aI4247
aI4960
aI8532
aI4850
aI6256
aI7544
aI3103
aI6330
aI6246
aI9247
aI7313
aI6373
aI10411
aI10285
aI1380
aI6769
aI898
aI10120
aI8967
aI10592
aI2419
aI8450
aI9027
aI6234
aI8699
aI7747
aI2475
aI10207
aI1837
aI7806
aI7691
aI6093
aI8676
aI3426
aI5500
aI7601
aI9506
aI10556
aI1799
aI6969
aI7166
aI10468
aI3476
aI4110
aI2337
aI9722
aI5887
aI4860
aI8127
aI3635
aI7560
aI7363
aI7076
aI2665
aI4599
aI9638
aI1362
aI10451
aI8744
aI2133
aI6627
aI6697
aI4503
aI2244
aI8846
aI426
aI2767
aI6557
aI3584
aI1612
aI10619
aI276
aI6220
aI7803
aI8452
aI8420
aI957
aI8343
aI3708
aI7843
aI1295
aI7640
aI6530
aI197
aI388
aI7598
aI8311
aI7132
aI7033
aI183
aI9433
aI3116
aI5154
aI2249
aI10210
aI4083
aI7549
aI5062
aI1391
aI1026
aI5799
aI7679
aI6045
aI9149
aI10471
aI10474
aI808
aI8903
aI8798
aI10647
aI4506
aI5962
aI724
aI2923
aI849
aI6171
aI3793
aI9952
aI5023
aI5851
aI1730
aI5995
aI4216
aI10425
aI5184
aI9342
aI3319
aI8803
aI9804
aI7211
aI3826
aI3754
aI4989
aI10645
aI5658
aI6025
aI10095
aI6172
aI7862
aI7844
aI7590
aI1629
aI1319
aI9850
aI4943
aI3316
aI4722
aI8285
aI9038
aI4076
aI7476
aI3966
aI4991
aI857
aI1907
aI7386
aI1644
aI10520
aI6715
aI10093
aI4476
aI1204
aI7267
aI10234
aI9495
aI7259
aI4896
aI6878
aI3058
aI10424
aI3641
aI8865
aI3987
aI6006
aI5290
aI3360
aI2018
aI1889
aI5054
aI9641
aI581
aI10400
aI4806
aI4149
aI1719
aI1482
aI9114
aI3639
aI5015
aI8937
aI7657
aI7934
aI6512
aI9537
aI2322
aI9958
aI305
aI10545
aI5533
aI5435
aI3033
aI8170
aI2192
aI3762
aI4963
aI1802
aI4095
aI3626
aI7745
aI2434
aI4114
aI6882
aI9206
aI9651
aI446
aI8578
aI1410
aI2381
aI6289
aI6357
aI9538
aI7758
aI3342
aI40
aI8314
aI4072
aI6190
aI1630
aI8152
aI5918
aI7608
aI10151
aI10525
aI8383
aI2572
aI671
aI4766
aI6019
aI897
aI5554
aI6062
aI7308
aI6317
aI10550
aI8414
aI792
aI7088
aI10389
aI6366
aI4767
aI2523
aI3286
aI2289
aI1654
aI2076
aI9361
aI5043
aI6639
aI2569
aI7450
aI4344
aI5376
aI9243
aI3404
aI6823
aI9764
aI9855
aI6784
aI6052
aI6369
aI6508
aI265
aI9069
aI1107
aI779
aI3091
aI7665
aI2845
aI8993
aI5699
aI9413
aI4855
aI6995
aI3464
aI685
aI2329
aI5306
aI2744
aI700
aI3519
aI4115
aI6719
aI1255
aI7592
aI579
aI121
aI7730
aI5300
aI7045
aI4709
aI5483
aI1054
aI7738
aI2199
aI1068
aI5216
aI576
aI471
aI6000
aI9902
aI7880
aI8721
aI3636
aI1559
aI6421
aI3961
aI5358
aI95
aI355
aI4441
aI5016
aI3459
aI10082
aI9628
aI2936
aI8234
aI4060
aI10278
aI4865
aI4280
aI4004
aI5123
aI5025
aI1239
aI6712
aI3551
aI10462
aI5056
aI7869
aI2783
aI6856
aI9746
aI9503
aI346
aI6155
aI7567
aI2179
aI4610
aI5808
aI4706
aI5681
aI8895
aI8938
aI9081
aI9250
aI723
aI7551
aI6327
aI5405
aI2463
aI9064
aI209
aI8349
aI2940
aI9842
aI10313
aI2853
aI1390
aI1307
aI7508
aI5825
aI1374
aI7054
aI4442
aI831
aI5695
aI2759
aI6838
aI6124
aI1735
aI4649
aI6004
aI1235
aI7138
aI10414
aI8273
aI82
aI1272
aI2298
aI8471
aI3668
aI1829
aI9359
aI7867
aI5264
aI7202
aI5493
aI2952
aI6237
aI5587
aI4028
aI3078
aI2549
aI8089
aI5590
aI8688
aI8126
aI9078
aI1252
aI10349
aI9779
aI5807
aI5985
aI9025
aI5333
aI3273
aI5055
aI4317
aI1510
aI5431
aI6936
aI10330
aI5183
aI2726
aI487
aI3191
aI2453
aI3581
aI4204
aI3720
aI9559
aI7026
aI825
aI4945
aI5854
aI2017
aI1162
aI9050
aI8108
aI2611
aI6423
aI7910
aI2540
aI3706
aI7216
aI9772
aI4224
aI2678
aI315
aI6832
aI1920
aI7712
aI1789
aI7594
aI5582
aI7053
aI9747
aI2800
aI3466
aI7978
aI4695
aI8156
aI5719
aI202
aI656
aI7456
aI855
aI8562
aI2827
aI9269
aI230
aI5598
aI596
aI7791
aI2132
aI6417
aI7566
aI1662
aI6728
aI8301
aI5110
aI4677
aI2910
aI8109
aI2710
aI2875
aI85
aI3444
aI5174
aI3065
aI1121
aI3676
aI3986
aI6987
aI8029
aI4087
aI925
aI3613
aI6760
aI8943
aI1931
aI2771
aI3956
aI2353
aI6893
aI5924
aI6688
aI489
aI10308
aI3763
aI5828
aI6676
aI9515
aI7497
aI9547
aI9768
aI2193
aI361
aI10020
aI9443
aI8686
aI5900
aI5497
aI4315
aI566
aI2834
aI2241
aI9993
aI981
aI10047
aI4828
aI1193
aI8945
aI8455
aI451
aI4486
aI6680
aI9150
aI3029
aI3430
aI7201
aI1585
aI5171
aI549
aI8395
aI2908
aI8712
aI739
aI8329
aI2568
aI5620
aI3776
aI10001
aI3152
aI10354
aI511
aI8486
aI9158
aI8735
aI751
aI5583
aI10650
aI9576
aI154
aI1558
aI9139
aI6473
aI6261
aI4859
aI2403
aI1880
aI8987
aI7796
aI9556
aI4892
aI934
aI9420
aI2808
aI9275
aI9887
aI6743
aI7585
aI7823
aI8734
aI4433
aI9176
aI3560
aI1884
aI3830
aI9985
aI9107
aI7991
aI4353
aI4777
aI725
aI5214
aI4893
aI3396
aI9498
aI9864
aI1378
aI3167
aI6670
aI8375
aI2494
aI307
aI7013
aI532
aI2367
aI9590
aI1517
aI2028
aI9017
aI1445
aI1914
aI195
aI3093
aI5450
aI1373
aI3896
aI753
aI1679
aI6693
aI1835
aI1579
aI402
aI7397
aI2702
aI1525
aI10491
aI2186
aI4170
aI6187
aI4279
aI10493
aI8048
aI5047
aI8698
aI6855
aI2624
aI9209
aI6106
aI5910
aI2478
aI7120
aI2027
aI2068
aI5429
aI9207
aI838
aI8197
aI425
aI6930
aI1518
aI4303
aI7441
aI10341
aI7670
aI5081
aI4354
aI8560
aI2567
aI1487
aI4666
aI5836
aI6018
aI8547
aI5635
aI8437
aI7109
aI6750
aI5202
aI434
aI6919
aI3824
aI922
aI1092
aI9300
aI8999
aI5031
aI7134
aI4582
aI6556
aI7755
aI1454
aI1134
aI9245
aI1261
aI7477
aI4593
aI9349
aI246
aI9780
aI2169
aI7845
aI1583
aI824
aI4231
aI4403
aI1284
aI5221
aI2942
aI10501
aI5140
aI193
aI5802
aI9449
aI3365
aI2427
aI142
aI6382
aI9460
aI5971
aI8411
aI556
aI7023
aI1318
aI6480
aI3489
aI3788
aI8764
aI6757
aI2907
aI10614
aI6619
aI1439
aI7330
aI7030
aI10209
aI5349
aI3811
aI5420
aI1861
aI8143
aI6595
aI1200
aI632
aI4920
aI4936
aI7425
aI214
aI4548
aI3285
aI2534
aI643
aI247
aI7344
aI1355
aI8954
aI1481
aI7368
aI4308
aI7071
aI3662
aI10017
aI1838
aI1759
aI947
aI2021
aI8181
aI832
aI5475
aI8432
aI4252
aI6060
aI7191
aI7025
aI6555
aI10589
aI4420
aI4184
aI3993
aI4773
aI1114
aI1622
aI3943
aI2906
aI3174
aI9417
aI9181
aI4827
aI4261
aI1765
aI9812
aI210
aI7471
aI7582
aI9551
aI10193
aI8120
aI2954
aI4042
aI1322
aI8403
aI6212
aI4637
aI7244
aI10439
aI3756
aI4012
aI10386
aI4459
aI1584
aI3963
aI10186
aI1606
aI4142
aI3441
aI10315
aI2279
aI9086
aI9528
aI8132
aI5409
aI8036
aI7587
aI8302
aI7739
aI7047
aI312
aI1980
aI5041
aI6506
aI5907
aI8031
aI3543
aI5883
aI5312
aI3607
aI7771
aI7282
aI773
aI6211
aI7813
aI10633
aI8670
aI3923
aI1314
aI7340
aI1286
aI888
aI2082
aI9945
aI73
aI9022
aI8402
aI8836
aI10561
aI2315
aI5434
aI4979
aI3131
aI8642
aI5592
aI5760
aI1538
aI49
aI407
aI5552
aI10320
aI6593
aI5229
aI6862
aI10217
aI10061
aI2119
aI1158
aI667
aI6640
aI9463
aI7504
aI2163
aI1494
aI4994
aI9908
aI8714
aI7089
aI9698
aI688
aI9769
aI5735
aI9951
aI10485
aI8103
aI6949
aI8992
aI7394
aI1689
aI7034
aI759
aI7954
aI8125
aI1717
aI7437
aI6993
aI6090
aI5565
aI8997
aI135
aI6539
aI1199
aI10267
aI5513
aI718
aI2912
aI9598
aI734
aI1756
aI1854
aI4642
aI4119
aI3614
aI1106
aI6841
aI2339
aI7409
aI1648
aI4084
aI2608
aI9754
aI2766
aI2400
aI7894
aI6221
aI6971
aI4193
aI6144
aI2679
aI6420
aI6980
aI6729
aI2505
aI2554
aI81
aI1850
aI10146
aI8660
aI6985
aI5690
aI8106
aI5779
aI6008
aI2266
aI5919
aI9284
aI3146
aI5271
aI2024
aI9212
aI7252
aI6290
aI5844
aI7564
aI2191
aI9785
aI7723
aI894
aI430
aI9863
aI2585
aI10559
aI8926
aI10335
aI4961
aI2145
aI547
aI1240
aI6909
aI844
aI8147
aI2009
aI10264
aI5089
aI4050
aI7428
aI8334
aI185
aI2299
aI5952
aI1743
aI3905
aI9916
aI10084
aI5737
aI868
aI1491
aI1288
aI776
aI8498
aI5255
aI5749
aI4769
aI4398
aI5557
aI5980
aI7442
aI2043
aI6672
aI1721
aI76
aI8299
aI3823
aI7496
aI8266
aI6279
aI2662
aI3721
aI2815
aI2189
aI1647
aI9554
a(lp2
I938
aI9510
aI3959
aI1691
aI9939
aI675
aI5006
aI4145
aI8321
aI4790
aI2273
aI4618
aI5925
aI5484
aI9291
aI3451
aI99
aI9784
aI3750
aI2084
aI2214
aI8407
aI1347
aI271
aI9563
aI10634
aI5128
aI4899
aI2529
aI3527
aI6652
aI5783
aI8618
aI1778
aI5987
aI847
aI3128
aI9500
aI3113
aI8787
aI6015
aI359
aI8594
aI7175
aI6089
aI258
aI7159
aI982
aI940
aI2675
aI1405
aI3372
aI9990
aI2587
aI6702
aI10044
aI2467
aI4159
aI5019
aI7817
aI9032
aI2282
aI7769
aI6298
aI5172
aI840
aI5627
aI7853
aI3972
aI7840
aI889
aI3878
aI5220
aI7681
aI6618
aI6022
aI2589
aI1017
aI708
aI9802
aI7108
aI5815
aI2562
aI2091
aI7150
aI9575
aI4836
aI3531
aI6570
aI6071
aI9856
aI5751
aI6940
aI7941
aI92
aI3453
aI2370
aI4723
aI5168
aI8691
aI2166
aI6013
aI9818
aI3907
aI8453
aI3475
aI10579
aI8362
aI3001
aI3178
aI4163
aI1984
aI4608
aI8604
aI7841
aI3294
aI5789
aI4805
aI1793
aI1941
aI1570
aI10338
aI9188
aI3593
aI3983
aI763
aI1858
aI6362
aI2844
aI232
aI9963
aI8515
aI9558
aI4732
aI3816
aI515
aI5612
aI2727
aI1187
aI2079
aI6501
aI4151
aI7677
aI1392
aI10567
aI8058
aI465
aI4761
aI5794
aI7387
aI4219
aI706
aI5048
aI6408
aI1062
aI4818
aI6092
aI222
aI2275
aI6699
aI6703
aI2285
aI395
aI9143
aI9738
aI8117
aI5339
aI3566
aI3698
aI2551
aI101
aI9531
aI5470
aI1917
aI7633
aI2243
aI557
aI10399
aI186
aI5781
aI8743
aI3250
aI2951
aI1035
aI199
aI2291
aI1400
aI6137
aI5893
aI9073
aI6276
aI9604
aI259
aI9173
aI6140
aI9854
aI807
aI6130
aI1839
aI5929
aI8567
aI8526
aI2097
aI4391
aI5037
aI6510
aI8174
aI5934
aI10530
aI3545
aI7314
aI10572
aI1315
aI9715
aI2689
aI3040
aI841
aI7740
aI8054
aI7439
aI4615
aI4284
aI6368
aI9876
aI7860
aI2707
aI5207
aI3405
aI7737
aI4169
aI5082
aI7764
aI2465
aI6968
aI10588
aI9927
aI5818
aI9509
aI6826
aI9968
aI6965
aI7838
aI2837
aI2278
aI3133
aI5002
aI1676
aI6824
aI8274
aI4158
aI10630
aI217
aI8380
aI8462
aI1192
aI9550
aI371
aI9989
aI2065
aI1100
aI3056
aI3151
aI1523
aI769
aI5038
aI9066
aI200
aI5534
aI9252
aI23
aI2187
aI219
aI5524
aI853
aI14
aI4745
aI211
aI1876
aI8611
aI7067
aI4472
aI5614
aI8128
aI6621
aI1497
aI10128
aI269
aI5819
aI10227
aI8864
aI10251
aI8413
aI4592
aI3074
aI5853
aI4113
aI5129
aI479
aI8709
aI10284
aI3723
aI4651
aI1194
aI1128
aI1469
aI3173
aI162
aI9427
aI6264
aI5543
aI7992
aI9702
aI8145
aI2913
aI1135
aI4434
aI4039
aI8360
aI7178
aI9540
aI2308
aI6720
aI5507
aI7074
aI9891
aI4833
aI3792
aI1361
aI5295
aI3841
aI4701
aI8623
aI3554
aI10172
aI7885
aI5275
aI2970
aI503
aI7661
aI4744
aI5998
aI7328
aI1028
aI2756
aI2113
aI1280
aI4743
aI1168
aI6887
aI3016
aI743
aI4197
aI1995
aI10226
aI8561
aI6655
aI4796
aI7602
aI1803
aI9386
aI79
aI1211
aI2093
aI9825
aI6840
aI7615
aI1085
aI2046
aI5847
aI3876
aI9529
aI3796
aI3471
aI10232
aI8801
aI10642
aI4581
aI9829
aI8838
aI1230
aI5233
aI10243
aI4861
aI2095
aI3900
aI1023
aI5328
aI4335
aI598
aI3465
aI2740
aI2424
aI8322
aI5951
aI2390
aI4889
aI7358
aI4035
aI7318
aI5425
aI6877
aI8246
aI3326
aI10323
aI2412
aI6313
aI6711
aI8373
aI9758
aI10083
aI3899
aI6708
aI5976
aI5189
aI2305
aI205
aI6178
aI5748
aI389
aI27
aI5436
aI2303
aI4286
aI5684
aI7812
aI6842
aI4831
aI8909
aI8879
aI4236
aI274
aI3579
aI7438
aI526
aI9336
aI6205
aI4318
aI4289
aI9435
aI10309
aI6890
aI2103
aI3357
aI8055
aI5885
aI3289
aI2629
aI7539
aI5908
aI5889
aI5668
aI8116
aI7040
aI10271
aI7144
aI10303
aI7382
aI2198
aI149
aI955
aI4162
aI676
aI8738
aI5521
aI9682
aI3810
aI2431
aI9557
aI6564
aI3518
aI1961
aI8097
aI7472
aI5277
aI2857
aI1418
aI3276
aI1111
aI7131
aI3561
aI1791
aI4980
aI3231
aI2437
aI8565
aI2379
aI5812
aI8852
aI10438
aI2674
aI9907
aI9332
aI5473
aI114
aI8335
aI292
aI5355
aI7050
aI7002
aI9221
aI1074
aI3275
aI1148
aI1712
aI10580
aI1668
aI1994
aI10094
aI10477
aI4305
aI9397
aI2071
aI6297
aI2530
aI4995
aI1073
aI2646
aI1432
aI8337
aI5224
aI4108
aI6077
aI3646
aI9109
aI10562
aI8554
aI2932
aI3154
aI436
aI2848
aI2256
aI10617
aI2342
atp3
a((lp4
I9271
aI2528
aI778
aI155
aI7354
aI6245
aI7643
aI9110
aI7268
aI938
aI913
aI7149
aI4146
aI7825
aI6206
aI2823
aI392
aI9510
aI3959
aI441
aI8217
aI4916
aI7290
aI393
aI8658
aI1691
aI3171
aI26
aI9939
aI8020
aI675
aI2114
aI8785
aI9065
aI9494
aI7616
aI2690
aI5006
aI690
aI2715
aI4145
aI6037
aI8321
aI4790
aI7648
aI2032
aI3232
aI873
aI2395
aI10496
aI2273
aI2537
aI4260
aI4618
aI6281
aI9566
aI5925
aI5484
aI10221
aI6139
aI8075
aI2188
aI7180
aI6059
aI854
aI9291
aI1928
aI4632
aI10327
aI6579
aI8236
aI932
aI1006
aI1051
aI9105
aI3451
aI99
aI4212
aI1271
aI9784
aI6531
aI8300
aI5503
aI1999
aI5842
aI2990
aI4049
aI3069
aI6351
aI4160
aI5371
aI2993
aI4461
aI7847
aI1642
aI766
aI5593
aI7669
aI686
aI2677
aI1131
aI2441
aI3750
aI4422
aI2084
aI3274
aI2214
aI3980
aI8407
aI1347
aI4983
aI7060
aI3081
aI271
aI9563
aI10634
aI4753
aI8564
aI6990
aI6846
aI10629
aI2958
aI8549
aI2653
aI7973
aI5128
aI4899
aI2529
aI1270
aI3527
aI4376
aI6652
aI10507
aI5783
aI8618
aI7621
aI248
aI7578
aI1778
aI6956
aI5921
aI3667
aI8372
aI5987
aI5660
aI6624
aI10252
aI5316
aI10312
aI10596
aI847
aI6348
aI9033
aI4437
aI8249
aI3128
aI9351
aI10062
aI10055
aI5989
aI588
aI5237
aI4971
aI5040
aI9500
aI5800
aI2196
aI2934
aI1684
aI2364
aI3113
aI353
aI8787
aI5344
aI4890
aI1375
aI6015
aI10135
aI835
aI4556
aI992
aI359
aI7100
aI1458
aI8594
aI10518
aI2141
aI9261
aI2730
aI7175
aI6089
aI9996
aI8410
aI10
aI258
aI7159
aI6874
aI3088
aI12
aI982
aI940
aI2675
aI102
aI9723
aI1405
aI6457
aI3313
aI3398
aI3671
aI3372
aI6388
aI10499
aI5209
aI5580
aI9256
aI9341
aI6518
aI5084
aI9990
aI2587
aI7141
aI6702
aI10044
aI6585
aI2467
aI9969
aI4159
aI6058
aI5019
aI7817
aI9032
aI6928
aI3861
aI10557
aI2282
aI5857
aI3153
aI6612
aI7769
aI2983
aI7631
aI6298
aI5125
aI1688
aI9895
aI5172
aI4962
aI7263
aI840
aI3868
aI10166
aI1972
aI5627
aI3913
aI7853
aI3972
aI919
aI2864
aI2220
aI8742
aI6818
aI2229
aI3057
aI1707
aI4189
aI6263
aI6100
aI7840
aI6427
aI3158
aI7532
aI4467
aI889
aI2002
aI5666
aI7865
aI10434
aI5249
aI8897
aI5254
aI3946
aI3878
aI7470
aI5220
aI5465
aI7681
aI7562
aI1173
aI8363
aI9374
aI6618
aI6022
aI3654
aI10480
aI3784
aI10524
aI8318
aI2458
aI7326
aI9596
aI3331
aI7882
aI2589
aI4885
aI8454
aI5894
aI1017
aI1611
aI9630
aI8207
aI708
aI9802
aI756
aI5953
aI531
aI7108
aI2380
aI8370
aI5815
aI4661
aI1163
aI9490
aI8051
aI2562
aI1960
aI2091
aI6283
aI10298
aI8692
aI937
aI7150
aI5053
aI8308
aI9575
aI3018
aI926
aI8566
aI10288
aI4266
aI4836
aI7058
aI1667
aI8929
aI9480
aI9165
aI6395
aI918
aI2714
aI3531
aI9
aI1195
aI2281
aI2369
aI8423
aI3699
aI3931
aI6122
aI1786
aI689
aI9437
aI6570
aI594
aI1976
aI5724
aI8098
aI2696
aI6071
aI9521
aI9856
aI10593
aI8821
aI670
aI3469
aI68
aI7404
aI5751
aI6813
aI10658
aI9465
aI8421
aI6940
aI7373
aI1886
aI3537
aI7941
aI92
aI3880
aI3453
aI9847
aI4984
aI2055
aI10329
aI10387
aI3567
aI4223
aI2370
aI4723
aI9760
aI5168
aI6851
aI1154
aI8691
aI4927
aI2166
aI6013
aI9818
aI10031
aI3912
aI6513
aI3664
aI6020
aI8084
aI3907
aI7852
aI8294
aI4561
aI879
aI8453
aI1711
aI220
aI3239
aI9479
aI8693
aI3860
aI2524
aI9693
aI694
aI120
aI9398
aI492
aI8753
aI658
aI10631
aI1335
aI3475
aI3729
aI6717
aI7225
aI522
aI1767
aI2693
aI10080
aI9727
aI3085
aI8057
aI8208
aI1938
aI10579
aI2974
aI86
aI8114
aI7943
aI3808
aI8072
aI9826
aI8362
aI6232
aI10195
aI3001
aI6044
aI3178
aI3108
aI2020
aI1665
aI3790
aI8387
aI8819
aI251
aI9123
aI7889
aI2980
aI9716
aI7215
aI4163
aI2259
aI1984
aI10296
aI3220
aI6861
aI4608
aI8887
aI10099
aI6268
aI1728
aI8604
aI7841
aI4832
aI8756
aI3294
aI5789
aI1779
aI3346
aI4805
aI4242
aI1793
aI8412
aI1941
aI5810
aI9048
aI2147
aI8679
aI2080
aI2753
aI5090
aI367
aI2831
aI1570
aI2613
aI737
aI10314
aI1172
aI8296
aI7711
aI10338
aI9188
aI3894
aI3627
aI9013
aI3436
aI3593
aI356
aI1078
aI516
aI2051
aI3983
aI3249
aI763
aI460
aI2634
aI8480
aI1968
aI109
aI1858
aI10381
aI4181
aI6362
aI6854
aI7133
aI2668
aI10610
aI2844
aI33
aI232
aI8356
aI3196
aI9963
aI8515
aI9558
aI4368
aI5366
aI4033
aI7697
aI4947
aI7800
aI620
aI2986
aI8361
aI4732
aI4364
aI1066
aI9059
aI5026
aI907
aI3816
aI515
aI4357
aI5612
aI3865
aI3623
aI1716
aI2727
aI2345
aI10322
aI8435
aI1187
aI3611
aI7981
aI2079
aI9144
aI6432
aI10541
aI6501
aI881
aI4151
aI3886
aI2415
aI7677
aI1392
aI5806
aI9568
aI9457
aI10567
aI9896
aI8172
aI9387
aI8058
aI1095
aI5703
aI6033
aI465
aI6439
aI1836
aI8425
aI9974
aI10657
aI7196
aI810
aI8392
aI7337
aI4761
aI2881
aI5794
aI8168
aI10182
aI409
aI8310
aI3710
aI7574
aI7387
aI6631
aI1637
aI3996
aI4219
aI706
aI6974
aI8017
aI6569
aI5048
aI1724
aI2217
aI6408
aI1062
aI4818
aI8636
aI6092
aI2156
aI9231
aI222
aI1281
aI6709
aI2274
aI5711
aI7974
aI2977
aI2275
aI3159
aI94
aI4737
aI4333
aI7233
aI3203
aI4934
aI6374
aI6699
aI8766
aI5837
aI166
aI4255
aI7709
aI1963
aI192
aI10547
aI4648
aI4653
aI8138
aI3990
aI6703
aI5253
aI8073
aI5039
aI2285
aI2501
aI3229
aI10586
aI3454
aI10102
aI3209
aI395
aI882
aI9143
aI5444
aI2075
aI9738
aI7918
aI1709
aI3854
aI5608
aI1739
aI6931
aI8117
aI2574
aI342
aI5739
aI2087
aI6575
aI4891
aI5356
aI5339
aI972
aI10540
aI3566
aI1147
aI4595
aI3340
aI3698
aI1108
aI4307
aI6193
aI2294
aI207
aI2348
aI9055
aI8910
aI8066
aI2551
aI2852
aI4996
aI101
aI8268
aI3798
aI9819
aI6542
aI653
aI9932
aI9531
aI7226
aI5470
aI1236
aI10032
aI568
aI1917
aI7633
aI2243
aI8790
aI5262
aI557
aI10399
aI186
aI5781
aI7423
aI3941
aI1170
aI607
aI8743
aI3250
aI3143
aI6900
aI2951
aI1323
aI1035
aI199
aI5863
aI7377
aI9141
aI10436
aI1243
aI6054
aI4298
aI7702
aI2291
aI1400
aI6137
aI5893
aI2184
aI234
aI9073
aI169
aI8913
aI7306
aI6276
aI6836
aI3420
aI7704
aI4664
aI4465
aI10194
aI3726
aI9604
aI6143
aI259
aI1602
aI5897
aI1459
aI10380
aI8013
aI4559
aI3145
aI5661
aI7876
aI9154
aI5141
aI8225
aI9797
aI9173
aI2344
aI9195
aI6140
aI878
aI9854
aI807
aI10456
aI2121
aI7558
aI3019
aI6130
aI1839
aI2206
aI7979
aI5160
aI4089
aI1201
aI5929
aI4248
aI8229
aI3523
aI4481
aI8401
aI7667
aI8567
aI5876
aI6235
aI2140
aI8589
aI5537
aI6407
aI9867
aI2716
aI5279
aI8526
aI2450
aI3211
aI3297
aI6484
aI1703
aI650
aI3337
aI2097
aI10608
aI3017
aI4415
aI4391
aI5634
aI1586
aI5037
aI7759
aI6510
aI10124
aI6895
aI2126
aI7962
aI9774
aI8174
aI10486
aI3568
aI9419
aI7418
aI9133
aI8916
aI5934
aI10530
aI13
aI2014
aI3545
aI1465
aI7314
aI7699
aI2012
aI10572
aI1315
aI9715
aI4562
aI684
aI569
aI1729
aI4452
aI313
aI9740
aI7632
aI2689
aI5589
aI2606
aI7895
aI3040
aI841
aI3785
aI7740
aI7999
aI2691
aI5170
aI6151
aI8054
aI6160
aI3882
aI5466
aI1921
aI5127
aI7439
aI7887
aI10571
aI2310
aI4615
aI4620
aI4284
aI6368
aI221
aI9876
aI624
aI10490
aI4055
aI6986
aI9127
aI7860
aI5886
aI2707
aI6580
aI4634
aI7828
aI4834
aI9325
aI2007
aI4030
aI4338
aI380
aI8891
aI8442
aI239
aI4063
aI3094
aI7636
aI1896
aI5207
aI8949
aI3261
aI6544
aI10262
aI5284
aI8607
aI3405
aI7737
aI1634
aI1843
aI1956
aI1449
aI9102
aI3027
aI6918
aI3577
aI6922
aI9973
aI3709
aI1309
aI4169
aI5082
aI9282
aI9627
aI7764
aI10339
aI2465
aI4658
aI22
aI1124
aI4066
aI9486
aI6968
aI6443
aI10588
aI3734
aI5121
aI651
aI4017
aI9394
aI8768
aI9927
aI2737
aI6524
aI518
aI6075
aI5818
aI9509
aI6826
aI1202
aI10337
aI9968
aI6965
aI6515
aI4751
aI7838
aI2837
aI8069
aI2278
aI3133
aI4306
aI9136
aI5002
aI6260
aI5522
aI1676
aI7083
aI8881
aI2261
aI6824
aI8274
aI3759
aI9811
aI4158
aI10630
aI4469
aI8556
aI9063
aI139
aI9917
aI4250
aI217
aI9456
aI1231
aI7871
aI8380
aI6790
aI5104
aI8462
aI1192
aI2550
aI9550
aI10249
aI6789
aI4417
aI1247
aI1422
aI8163
aI115
aI2695
aI371
aI4176
aI9734
aI9989
aI7043
aI5145
aI2065
aI5294
aI8543
aI1100
aI3056
aI2284
aI3151
aI736
aI3087
aI1523
aI8948
aI769
aI6489
aI8965
aI3828
aI5038
aI5387
aI5717
aI4365
aI8872
aI84
aI8730
aI9066
aI6082
aI2533
aI2172
aI8584
aI200
aI4178
aI9975
aI4568
aI5534
aI8257
aI6132
aI8458
aI9252
aI2461
aI10034
aI23
aI156
aI10110
aI2187
aI3558
aI4687
aI7794
aI5272
aI3288
aI3160
aI7231
aI4247
aI4960
aI219
aI4850
aI6256
aI5524
aI7544
aI853
aI6330
aI6246
aI9247
aI14
aI4745
aI7313
aI6373
aI10411
aI10285
aI1380
aI211
aI898
aI10120
aI8967
aI1876
aI8450
aI9027
aI8611
aI8699
aI7067
aI2475
aI10207
aI1837
aI7806
aI7691
aI6093
aI8676
aI3426
aI5500
aI9506
aI10556
aI1799
aI6969
aI10468
aI3476
aI2337
aI5887
aI4472
aI7560
aI7363
aI2665
aI4599
aI9638
aI1362
aI5614
aI10451
aI8128
aI2133
aI6627
aI6697
aI426
aI2767
aI6557
aI276
aI6220
aI8452
aI6621
aI8420
aI1497
aI957
aI10128
aI269
aI3708
aI7843
aI5819
aI1295
aI10227
aI7640
aI8864
aI10251
aI6530
aI8413
aI197
aI388
aI7598
aI4592
aI8311
aI7132
aI7033
aI3074
aI5853
aI3116
aI5154
aI2249
aI10210
aI4083
aI7549
aI1391
aI1026
aI5799
aI7679
aI9149
aI10471
aI10474
aI808
aI8903
aI8798
aI10647
aI4113
aI4506
aI724
aI2923
aI849
aI6171
aI5129
aI9952
aI5023
aI479
aI5851
aI8709
aI10284
aI3723
aI4651
aI5995
aI1194
aI10425
aI9342
aI3319
aI8803
aI9804
aI7211
aI1128
aI3826
aI3754
aI4989
aI5658
aI1469
aI6025
aI10095
aI3173
aI7844
aI162
aI9427
aI7590
aI1629
aI6264
aI1319
aI9850
aI4943
aI3316
aI5543
aI4722
aI8285
aI9038
aI4076
aI7476
aI3966
aI1907
aI7386
aI1644
aI10520
aI6715
aI10093
aI4476
aI7992
aI1204
aI7267
aI10234
aI9495
aI9702
aI8145
aI6878
aI2913
aI10424
aI8865
aI3987
aI1135
aI6006
aI5290
aI3360
aI2018
aI1889
aI4434
aI9641
aI10400
aI4806
aI4149
aI1719
aI1482
aI9114
aI3639
aI5015
aI4039
aI8937
aI8360
aI7934
aI9537
aI2322
aI305
aI5533
aI7178
aI5435
aI3033
aI8170
aI2192
aI1802
aI4095
aI3626
aI7745
aI9540
aI2308
aI2434
aI4114
aI9206
aI6720
aI9651
aI446
aI8578
aI1410
aI2381
aI6357
aI5507
aI7758
aI3342
aI40
aI8314
aI4072
aI6190
aI1630
aI8152
aI7074
aI9891
aI10151
aI10525
aI4833
aI3792
aI2572
aI1361
aI671
aI4766
aI6019
aI897
aI5554
aI5295
aI7308
aI10550
aI8414
aI792
aI3841
aI7088
aI6366
aI4767
aI4701
aI8623
aI2523
aI3286
aI3554
aI10172
aI2289
aI1654
aI2076
aI9361
aI5043
aI6639
aI2569
aI7885
aI7450
aI4344
aI5376
aI5275
aI9243
aI3404
aI6823
aI9764
aI9855
aI6784
aI2970
aI6369
aI6508
aI503
aI779
aI7661
aI7665
aI2845
aI8993
aI4744
aI4855
aI6995
aI3464
aI5306
aI2744
aI5998
aI700
aI3519
aI4115
aI7328
aI1255
aI7592
aI1028
aI579
aI121
aI7730
aI5483
aI1054
aI2756
aI7738
aI2199
aI2113
aI1068
aI5216
aI1280
aI4743
aI471
aI6000
aI9902
aI8721
aI3636
aI1559
aI6421
aI3961
aI5358
aI1168
aI6887
aI5016
aI3459
aI10082
aI2936
aI3016
aI10278
aI4865
aI4280
aI4004
aI5123
aI5025
aI1239
aI6712
aI5056
aI7869
aI2783
aI6856
aI743
aI9746
aI9503
aI346
aI6155
aI7567
aI2179
aI4610
aI4706
aI4197
aI5681
aI1995
aI10226
aI8938
aI8561
aI9081
aI9250
aI723
aI7551
aI6655
aI4796
aI6327
aI5405
aI2463
aI9064
aI7602
aI209
aI2940
aI9842
aI10313
aI1803
aI2853
aI9386
aI1307
aI79
aI7054
aI4442
aI1211
aI831
aI2093
aI5695
aI2759
aI6838
aI1735
aI9825
aI4649
aI6004
aI1235
aI7138
aI8273
aI82
aI6840
aI1272
aI2298
aI8471
aI3668
aI7615
aI1085
aI1829
aI7867
aI5264
aI7202
aI2952
aI6237
aI2046
aI5587
aI5847
aI3078
aI2549
aI8089
aI3876
aI5590
aI8688
aI8126
aI9078
aI1252
aI9529
aI10349
aI9779
aI5807
aI5985
aI9025
aI3796
aI3471
aI10232
aI5333
aI3273
aI5055
aI4317
aI1510
aI5431
aI6936
aI10330
aI8801
aI5183
aI2726
aI10642
aI487
aI4581
aI9829
aI8838
aI1230
aI3191
aI2453
aI5233
aI3581
aI4204
aI3720
aI9559
aI7026
aI825
aI5854
aI1162
aI9050
aI8108
aI6423
aI7910
aI2540
aI3706
aI10243
aI7216
aI9772
aI4224
aI2678
aI315
aI6832
aI1920
aI1789
aI4861
aI7594
aI7053
aI2095
aI9747
aI2800
aI3466
aI7978
aI4695
aI3900
aI1023
aI5328
aI4335
aI598
aI3465
aI7456
aI855
aI8562
aI2740
aI2424
aI2827
aI8322
aI9269
aI230
aI5598
aI596
aI7791
aI2132
aI5951
aI6417
aI7566
aI1662
aI6728
aI8301
aI5110
aI2390
aI2910
aI8109
aI4889
aI7358
aI2710
aI2875
aI85
aI3444
aI5174
aI3065
aI1121
aI3676
aI3986
aI6987
aI8029
aI4087
aI4035
aI6760
aI2771
aI3956
aI6893
aI5924
aI6688
aI489
aI10308
aI5828
aI6676
aI7318
aI9515
aI7497
aI2193
aI361
aI10020
aI9443
aI5900
aI5425
aI4315
aI566
aI6877
aI2834
aI2241
aI8246
aI10047
aI4828
aI1193
aI8945
aI8455
aI451
aI6680
aI9150
aI3029
aI3430
aI7201
aI1585
aI5171
aI8395
aI2908
aI3326
aI8712
aI10323
aI8329
aI2568
aI2412
aI3776
aI6313
aI6711
aI8373
aI3152
aI10354
aI511
aI9758
aI9158
aI8735
aI10083
aI10650
aI154
aI3899
aI6708
aI6473
aI6261
aI2403
aI1880
aI9556
aI4892
aI934
aI9420
aI2808
aI9887
aI6743
aI7585
aI5976
aI7823
aI8734
aI4433
aI5189
aI3560
aI1884
aI2305
aI205
aI3830
aI9985
aI9107
aI7991
aI4353
aI6178
aI4777
aI725
aI5214
aI3396
aI9498
aI1378
aI6670
aI8375
aI2494
aI307
aI7013
aI532
aI2367
aI5748
aI9590
aI389
aI27
aI2028
aI9017
aI1914
aI195
aI3093
aI5436
aI5450
aI1373
aI3896
aI2303
aI753
aI4286
aI6693
aI7397
aI2702
aI1525
aI10491
aI2186
aI5684
aI7812
aI10493
aI6855
aI2624
aI6842
aI4831
aI9209
aI6106
aI5910
aI8909
aI8879
aI7120
aI4236
aI274
aI2027
aI3579
aI5429
aI9207
aI838
aI7438
aI425
aI526
aI6930
aI4303
aI7441
aI9336
aI10341
aI7670
aI5081
aI4354
aI8560
aI2567
aI1487
aI6205
aI4666
aI5836
aI6018
aI8547
aI5635
aI8437
aI4318
aI4289
aI434
aI9435
aI6919
aI3824
aI10309
aI922
aI1092
aI5031
aI7134
aI4582
aI6556
aI7755
aI1454
aI6890
aI1134
aI9245
aI1261
aI7477
aI9349
aI2103
aI9780
aI3357
aI2169
aI8055
aI7845
aI1583
aI824
aI5885
aI4403
aI1284
aI5221
aI3289
aI2629
aI2942
aI10501
aI7539
aI193
aI5802
aI5908
aI9449
aI5889
aI5668
aI2427
aI6382
aI8116
aI5971
aI8411
aI7040
aI556
aI7023
aI10271
aI6480
aI7144
aI10303
aI3489
aI3788
aI8764
aI6757
aI10614
aI6619
aI1439
aI7330
aI7030
aI10209
aI5349
aI3811
aI7382
aI2198
aI5420
aI1861
aI8143
aI6595
aI149
aI632
aI4920
aI4936
aI7425
aI214
aI955
aI3285
aI4162
aI2534
aI643
aI247
aI7344
aI1355
aI8954
aI1481
aI7368
aI676
aI4308
aI8738
aI7071
aI10017
aI1838
aI5521
aI947
aI2021
aI8181
aI5475
aI4252
aI6060
aI7191
aI6555
aI4420
aI9682
aI4184
aI3810
aI2431
aI3993
aI4773
aI1114
aI1622
aI3943
aI2906
aI3174
aI9417
aI9181
aI9557
aI6564
aI3518
aI4827
aI4261
aI1765
aI1961
aI9812
aI210
aI8097
aI7472
aI10193
aI8120
aI5277
aI2954
aI4042
aI8403
aI2857
aI1418
aI4637
aI10439
aI3756
aI4012
aI3276
aI1584
aI1111
aI3963
aI7131
aI3561
aI10186
aI1606
aI1791
aI4980
aI3231
aI4142
aI2437
aI10315
aI8565
aI2279
aI9086
aI9528
aI8132
aI5409
aI2379
aI7587
aI8302
aI7739
aI7047
aI312
aI1980
aI5041
aI6506
aI5907
aI5812
aI3543
aI8852
aI10438
aI2674
aI5312
aI3607
aI7771
aI7282
aI773
aI6211
aI9907
aI9332
aI5473
aI10633
aI8670
aI3923
aI1314
aI114
aI7340
aI1286
aI888
aI2082
aI9945
aI73
aI9022
aI8402
aI8836
aI8335
aI10561
aI2315
aI292
aI5434
aI5355
aI4979
aI7050
aI8642
aI7002
aI5592
aI5760
aI1538
aI49
aI9221
aI407
aI1074
aI5552
aI6593
aI3275
aI5229
aI1148
aI10217
aI1712
aI10061
aI2119
aI667
aI6640
aI10580
aI9463
aI7504
aI2163
aI1494
aI4994
aI9908
aI8714
aI7089
aI9769
aI10485
aI8103
aI6949
aI8992
aI7394
aI1689
aI7034
aI759
aI7954
aI1717
aI7437
aI6993
aI1668
aI6090
aI8997
aI1994
aI6539
aI10094
aI10267
aI10477
aI718
aI4305
aI9598
aI9397
aI2071
aI734
aI6297
aI1756
aI2530
aI1854
aI4995
aI4119
aI3614
aI1106
aI2339
aI7409
aI1648
aI4084
aI2608
aI1073
aI2646
aI1432
aI2766
aI2400
aI7894
aI8337
aI6971
aI2679
aI6420
aI5224
aI6980
aI4108
aI6729
aI2505
aI1850
aI10146
aI6985
aI6077
aI3646
aI5690
aI8106
aI9109
aI5779
aI6008
aI2266
aI5919
aI10562
aI3146
aI5271
aI9212
aI6290
aI8554
aI5844
aI7564
aI9785
aI430
aI9863
aI10559
aI2932
aI8926
aI10335
aI4961
aI2145
aI547
aI3154
aI6909
aI844
aI8147
aI2009
aI436
aI5089
aI4050
aI7428
aI8334
aI185
aI5952
aI1743
aI3905
aI9916
aI2848
aI10084
aI5737
aI1288
aI776
aI8498
aI5255
aI4769
aI2043
aI6672
aI1721
aI76
aI2256
aI8299
aI10617
aI3823
aI8266
aI6279
aI2662
aI3721
aI2815
aI2189
aI1647
aI2342
aI9554
a(lp5
I9104
aI8649
aI3358
aI6112
aI1393
aI9844
aI9019
aI5570
aI5235
aI5514
aI5097
aI6625
aI8305
aI325
aI130
aI10568
aI1043
aI391
aI6664
aI6215
aI6302
aI3804
aI6375
aI5399
aI592
aI577
aI7455
aI10441
aI5139
aI3952
aI9418
aI7176
aI3039
aI9491
aI1260
aI3092
aI9383
aI5169
aI2894
aI3251
aI223
aI3800
aI2416
aI1567
aI2578
aI4069
aI7528
aI852
aI326
aI7952
aI7644
aI4910
aI9138
aI7772
aI7383
aI3327
aI6778
aI1722
aI5212
aI3653
aI5392
aI1116
aI8493
aI2822
aI7543
aI6307
aI9645
aI3149
aI3638
aI6535
aI7969
aI7799
aI5605
aI3343
aI823
aI10391
aI10420
aI3150
aI3867
aI2705
aI2775
aI8632
aI6740
aI9721
aI2445
aI4913
aI2632
aI8495
aI1495
aI1248
aI4668
aI374
aI97
aI1623
aI9279
aI7684
aI8635
aI1615
aI6254
aI1021
aI6007
aI7240
aI3328
aI3472
aI7081
aI6216
aI10297
aI3474
aI10551
aI8118
aI6115
aI8150
aI6291
aI1428
aI8925
aI7725
aI1692
aI2510
aI9659
aI3176
aI10375
aI2851
aI6888
aI8136
aI6430
aI3596
aI7157
aI3395
aI9872
aI10455
aI4560
aI9458
aI6293
aI4853
aI10077
aI1890
aI365
aI3697
aI10176
aI264
aI9162
aI2283
aI5672
aI3746
aI9792
aI10409
aI1493
aI7277
aI5744
aI6731
aI5994
aI6920
aI563
aI4527
aI7881
aI5280
aI4468
aI4164
aI10282
aI783
aI5445
aI6948
aI6692
aI4926
aI525
aI4314
aI2818
aI5334
aI10096
aI9600
aI9204
aI9781
aI5124
aI6287
aI9606
aI7403
aI2697
aI5375
aI2799
aI4997
aI10638
aI8845
aI6561
aI504
aI5880
aI10223
aI4232
aI1687
aI9126
aI2118
aI1440
aI4825
aI2139
aI3182
aI8696
aI2824
aI5726
aI2750
aI6904
aI9217
aI7465
aI8582
aI1499
aI8746
aI9817
aI316
aI8732
aI6577
aI7462
aI10615
aI7565
aI1666
aI8741
aI6146
aI5478
aI9815
aI9117
aI1275
aI3347
aI1052
aI8840
aI7919
aI10108
aI2721
aI1591
aI6937
aI5736
aI5192
aI7668
aI3686
aI5238
aI3401
aI7427
aI6914
aI3599
aI8473
aI5161
aI6623
aI6669
aI1057
aI8789
aI4351
aI1697
aI5242
aI591
aI2680
aI6101
aI287
aI4383
aI1120
aI8904
aI3024
aI7638
aI1488
aI10459
aI366
aI4811
aI5669
aI4547
aI3312
aI4202
aI10544
aI7256
aI4430
aI5314
aI9986
aI9936
aI9318
aI8828
aI439
aI1519
aI10412
aI3072
aI1708
aI9012
aI5502
aI6872
aI8275
aI8922
aI9572
aI4244
aI895
aI9940
aI4781
aI272
aI3840
aI8028
aI2471
aI9581
aI9950
aI7923
aI177
aI7381
aI9487
aI1351
aI8204
aI7736
aI8350
aI5542
aI7271
aI2228
aI5829
aI6024
aI6667
aI90
aI128
aI8532
aI3103
aI6769
aI10592
aI2419
aI6234
aI7747
aI7601
aI7166
aI4110
aI9722
aI4860
aI8127
aI3635
aI7076
aI8744
aI4503
aI2244
aI8846
aI3584
aI1612
aI10619
aI7803
aI8343
aI183
aI9433
aI5062
aI6045
aI5962
aI3793
aI1730
aI4216
aI5184
aI10645
aI6172
aI7862
aI4991
aI857
aI7259
aI4896
aI3058
aI3641
aI5054
aI581
aI7657
aI6512
aI9958
aI10545
aI3762
aI4963
aI6882
aI6289
aI9538
aI5918
aI7608
aI8383
aI6062
aI6317
aI10389
aI6052
aI265
aI9069
aI1107
aI3091
aI5699
aI9413
aI685
aI2329
aI6719
aI5300
aI7045
aI4709
aI576
aI7880
aI95
aI355
aI4441
aI9628
aI8234
aI4060
aI3551
aI10462
aI5808
aI8895
aI8349
aI1390
aI7508
aI5825
aI1374
aI6124
aI10414
aI9359
aI5493
aI4028
aI4945
aI2017
aI2611
aI7712
aI5582
aI8156
aI5719
aI202
aI656
aI4677
aI925
aI3613
aI8943
aI1931
aI2353
aI3763
aI9547
aI9768
aI8686
aI5497
aI9993
aI981
aI4486
aI549
aI739
aI5620
aI10001
aI8486
aI751
aI5583
aI9576
aI1558
aI9139
aI4859
aI8987
aI7796
aI9275
aI9176
aI4893
aI9864
aI3167
aI1517
aI1445
aI1679
aI1835
aI1579
aI402
aI4170
aI6187
aI4279
aI8048
aI5047
aI8698
aI2478
aI2068
aI8197
aI1518
aI7109
aI6750
aI5202
aI9300
aI8999
aI4593
aI246
aI4231
aI5140
aI3365
aI142
aI9460
aI1318
aI2907
aI1200
aI4548
aI3662
aI1759
aI832
aI8432
aI7025
aI10589
aI7471
aI7582
aI9551
aI1322
aI6212
aI7244
aI10386
aI4459
aI3441
aI8036
aI8031
aI5883
aI7813
aI3131
aI10320
aI6862
aI1158
aI9698
aI688
aI5735
aI9951
aI8125
aI5565
aI135
aI1199
aI5513
aI2912
aI4642
aI6841
aI9754
aI6221
aI4193
aI6144
aI2554
aI81
aI8660
aI9284
aI2024
aI7252
aI2191
aI7723
aI894
aI2585
aI1240
aI10264
aI2299
aI868
aI1491
aI5749
aI4398
aI5557
aI5980
aI7442
aI7496
atp6
a((lp7
I9271
aI778
aI155
aI7354
aI6245
aI9110
aI7268
aI9104
aI938
aI913
aI7149
aI7825
aI6206
aI8649
aI9510
aI3959
aI441
aI3358
aI8217
aI4916
aI6112
aI7290
aI8658
aI1393
aI9844
aI1691
aI9019
aI5570
aI26
aI5235
aI9939
aI675
aI5514
aI2114
aI7616
aI5097
aI2690
aI5006
aI690
aI4145
aI6625
aI8321
aI4790
aI8305
aI325
aI130
aI10568
aI1043
aI3232
aI391
aI873
aI2395
aI10496
aI2273
aI2537
aI6664
aI4260
aI4618
aI9566
aI6215
aI5925
aI5484
aI10221
aI6139
aI8075
aI6302
aI6059
aI854
aI9291
aI1928
aI4632
aI10327
aI8236
aI932
aI1051
aI9105
aI3451
aI99
aI1271
aI9784
aI3804
aI6531
aI8300
aI6375
aI5503
aI5399
aI1999
aI5842
aI2990
aI4049
aI592
aI3069
aI6351
aI577
aI4160
aI7847
aI1642
aI5593
aI2441
aI7455
aI3750
aI10441
aI5139
aI3952
aI9418
aI7176
aI2084
aI3274
aI2214
aI3039
aI3980
aI8407
aI1347
aI9491
aI4983
aI271
aI9563
aI10634
aI4753
aI1260
aI8564
aI3092
aI9383
aI5169
aI6990
aI2894
aI6846
aI2958
aI8549
aI2653
aI3251
aI5128
aI4899
aI2529
aI1270
aI223
aI3527
aI4376
aI6652
aI10507
aI5783
aI8618
aI7621
aI248
aI7578
aI1778
aI3800
aI6956
aI2416
aI3667
aI1567
aI8372
aI5987
aI5660
aI6624
aI2578
aI10252
aI5316
aI10312
aI10596
aI847
aI6348
aI9033
aI4437
aI3128
aI9351
aI10062
aI10055
aI4069
aI5989
aI588
aI7528
aI5237
aI852
aI326
aI5040
aI7952
aI9500
aI5800
aI2934
aI1684
aI2364
aI3113
aI8787
aI7644
aI5344
aI4910
aI9138
aI4890
aI7772
aI6015
aI10135
aI835
aI7383
aI3327
aI6778
aI1722
aI4556
aI992
aI359
aI7100
aI1458
aI8594
aI10518
aI5212
aI2141
aI9261
aI2730
aI7175
aI6089
aI8410
aI10
aI258
aI7159
aI3653
aI6874
aI5392
aI982
aI940
aI2675
aI9723
aI1405
aI6457
aI1116
aI8493
aI2822
aI7543
aI6307
aI3372
aI10499
aI5209
aI9645
aI5580
aI9256
aI3149
aI9990
aI3638
aI2587
aI7141
aI6535
aI6702
aI10044
aI7969
aI7799
aI5605
aI3343
aI6585
aI2467
aI9969
aI4159
aI6058
aI5019
aI7817
aI823
aI9032
aI6928
aI3861
aI10391
aI2282
aI10420
aI5857
aI3153
aI7769
aI2983
aI7631
aI3150
aI6298
aI1688
aI3867
aI2705
aI5172
aI7263
aI840
aI5627
aI2775
aI8632
aI7853
aI3972
aI919
aI6740
aI2864
aI2220
aI8742
aI6818
aI3057
aI1707
aI9721
aI2445
aI6100
aI7840
aI4913
aI6427
aI4467
aI889
aI2002
aI2632
aI5666
aI8495
aI8897
aI1495
aI3946
aI3878
aI1248
aI7470
aI5220
aI4668
aI374
aI7681
aI7562
aI8363
aI97
aI6618
aI6022
aI10480
aI3784
aI1623
aI9279
aI10524
aI8318
aI7326
aI3331
aI7882
aI2589
aI7684
aI4885
aI8635
aI1017
aI1611
aI9630
aI1615
aI8207
aI6254
aI708
aI9802
aI756
aI5953
aI531
aI1021
aI7108
aI2380
aI6007
aI8370
aI5815
aI4661
aI7240
aI1163
aI9490
aI3328
aI3472
aI2562
aI1960
aI2091
aI7081
aI7150
aI5053
aI8308
aI9575
aI6216
aI3018
aI926
aI8566
aI10288
aI4266
aI4836
aI7058
aI1667
aI8929
aI9480
aI9165
aI10297
aI2714
aI3531
aI2281
aI3474
aI2369
aI8423
aI3699
aI10551
aI8118
aI689
aI6115
aI6570
aI8150
aI6291
aI1976
aI8098
aI1428
aI6071
aI8925
aI9856
aI7725
aI1692
aI2510
aI8821
aI670
aI3469
aI68
aI7404
aI5751
aI9659
aI3176
aI10375
aI6940
aI7373
aI2851
aI3537
aI7941
aI6888
aI8136
aI92
aI3453
aI4984
aI10329
aI10387
aI2370
aI6430
aI4723
aI3596
aI7157
aI5168
aI3395
aI9872
aI6851
aI1154
aI8691
aI4927
aI2166
aI6013
aI10455
aI9818
aI4560
aI10031
aI3912
aI6513
aI6020
aI9458
aI3907
aI7852
aI879
aI8453
aI6293
aI4853
aI10077
aI220
aI8693
aI9693
aI694
aI492
aI1890
aI3475
aI3729
aI365
aI3697
aI10176
aI6717
aI264
aI9162
aI7225
aI2283
aI522
aI1767
aI5672
aI3746
aI2693
aI9792
aI10409
aI1493
aI9727
aI7277
aI8057
aI1938
aI10579
aI5744
aI2974
aI86
aI7943
aI8072
aI9826
aI8362
aI10195
aI3001
aI6731
aI6044
aI3178
aI3108
aI2020
aI5994
aI3790
aI6920
aI8819
aI251
aI7889
aI563
aI2980
aI9716
aI4163
aI4527
aI1984
aI10296
aI7881
aI5280
aI3220
aI4608
aI8887
aI4468
aI8604
aI7841
aI4832
aI8756
aI4164
aI3294
aI5789
aI1779
aI3346
aI4805
aI10282
aI1793
aI8412
aI783
aI1941
aI5810
aI9048
aI2147
aI8679
aI5445
aI6948
aI5090
aI6692
aI2831
aI4926
aI1570
aI525
aI2613
aI8296
aI7711
aI4314
aI2818
aI10338
aI9188
aI5334
aI3627
aI3436
aI3593
aI10096
aI9600
aI3983
aI3249
aI763
aI9204
aI1968
aI9781
aI109
aI1858
aI5124
aI4181
aI6362
aI7133
aI2668
aI10610
aI2844
aI33
aI232
aI8356
aI3196
aI9963
aI6287
aI8515
aI9558
aI4368
aI9606
aI5366
aI4033
aI7697
aI4947
aI620
aI2986
aI7403
aI8361
aI4732
aI2697
aI5375
aI4364
aI5026
aI907
aI3816
aI515
aI5612
aI3865
aI2799
aI3623
aI1716
aI2727
aI4997
aI2345
aI8435
aI10638
aI1187
aI3611
aI7981
aI2079
aI9144
aI6432
aI6501
aI881
aI4151
aI2415
aI7677
aI1392
aI9568
aI9457
aI8845
aI10567
aI9896
aI9387
aI8058
aI6561
aI6033
aI465
aI8425
aI9974
aI7196
aI8392
aI7337
aI4761
aI5794
aI10182
aI409
aI8310
aI7574
aI7387
aI6631
aI1637
aI3996
aI4219
aI706
aI8017
aI504
aI6569
aI5048
aI5880
aI1724
aI10223
aI6408
aI1062
aI4818
aI8636
aI6092
aI9231
aI222
aI1281
aI6709
aI4232
aI2274
aI5711
aI7974
aI2275
aI94
aI4737
aI4333
aI1687
aI7233
aI3203
aI6374
aI6699
aI8766
aI5837
aI4255
aI7709
aI1963
aI192
aI4648
aI4653
aI8138
aI3990
aI6703
aI5253
aI9126
aI8073
aI5039
aI2118
aI2285
aI2501
aI3229
aI1440
aI3454
aI10102
aI4825
aI2139
aI395
aI3182
aI8696
aI9143
aI5444
aI2075
aI9738
aI1709
aI2824
aI5608
aI6931
aI8117
aI5726
aI2087
aI6575
aI2750
aI4891
aI5356
aI5339
aI972
aI10540
aI3566
aI1147
aI4595
aI3340
aI3698
aI1108
aI6904
aI4307
aI9217
aI2294
aI7465
aI2348
aI9055
aI8910
aI2551
aI4996
aI8582
aI1499
aI101
aI9932
aI9531
aI8746
aI5470
aI1236
aI9817
aI316
aI8732
aI568
aI6577
aI1917
aI7633
aI2243
aI8790
aI5262
aI557
aI10399
aI186
aI5781
aI7423
aI1170
aI607
aI8743
aI3250
aI3143
aI6900
aI2951
aI7462
aI1035
aI199
aI10615
aI7565
aI5863
aI7377
aI1666
aI10436
aI1243
aI8741
aI4298
aI6146
aI5478
aI7702
aI2291
aI1400
aI6137
aI5893
aI2184
aI234
aI9073
aI169
aI8913
aI7306
aI9815
aI6276
aI3420
aI4465
aI9117
aI1275
aI10194
aI3726
aI3347
aI1052
aI8840
aI9604
aI6143
aI259
aI7919
aI5897
aI10108
aI1459
aI10380
aI8013
aI4559
aI5661
aI2721
aI1591
aI6937
aI5736
aI5192
aI9154
aI5141
aI8225
aI7668
aI9797
aI9173
aI2344
aI9195
aI3686
aI6140
aI9854
aI807
aI10456
aI2121
aI5238
aI7558
aI3401
aI7427
aI6130
aI1839
aI2206
aI7979
aI5160
aI4089
aI6914
aI1201
aI5929
aI3599
aI8473
aI8229
aI3523
aI4481
aI8401
aI7667
aI8567
aI5876
aI5161
aI2140
aI6623
aI6407
aI9867
aI6669
aI1057
aI5279
aI8526
aI8789
aI4351
aI1697
aI5242
aI2450
aI591
aI2680
aI3297
aI6484
aI1703
aI650
aI3337
aI2097
aI3017
aI4415
aI6101
aI4391
aI5634
aI5037
aI7759
aI287
aI6510
aI2126
aI7962
aI9774
aI8174
aI10486
aI3568
aI9419
aI7418
aI9133
aI8916
aI5934
aI4383
aI10530
aI13
aI3545
aI1465
aI7314
aI2012
aI10572
aI1315
aI9715
aI4562
aI1120
aI569
aI1729
aI4452
aI8904
aI313
aI3024
aI7638
aI7632
aI1488
aI2689
aI2606
aI10459
aI7895
aI3040
aI841
aI3785
aI7740
aI6151
aI8054
aI6160
aI5127
aI7439
aI366
aI7887
aI4811
aI4615
aI4620
aI4284
aI6368
aI9876
aI10490
aI5669
aI9127
aI7860
aI5886
aI2707
aI4547
aI6580
aI4634
aI3312
aI7828
aI4834
aI4202
aI9325
aI10544
aI2007
aI7256
aI4338
aI8891
aI8442
aI239
aI4430
aI5314
aI3094
aI7636
aI5207
aI8949
aI9986
aI3261
aI10262
aI5284
aI3405
aI9936
aI7737
aI1843
aI9318
aI8828
aI1956
aI9102
aI3027
aI3577
aI6922
aI9973
aI3709
aI1309
aI4169
aI5082
aI439
aI9282
aI9627
aI7764
aI2465
aI4658
aI4066
aI6968
aI6443
aI10588
aI3734
aI8768
aI9927
aI2737
aI6524
aI518
aI6075
aI5818
aI1519
aI9509
aI6826
aI1202
aI10412
aI10337
aI9968
aI6965
aI6515
aI4751
aI7838
aI2837
aI8069
aI2278
aI3133
aI4306
aI9136
aI5002
aI6260
aI3072
aI5522
aI1676
aI7083
aI8881
aI2261
aI6824
aI8274
aI9811
aI1708
aI4158
aI9012
aI10630
aI4469
aI9063
aI5502
aI4250
aI6872
aI217
aI8275
aI1231
aI8380
aI6790
aI5104
aI8462
aI1192
aI2550
aI9550
aI10249
aI1247
aI8922
aI8163
aI115
aI9572
aI2695
aI371
aI4244
aI895
aI4176
aI9940
aI9989
aI7043
aI5145
aI2065
aI4781
aI272
aI8543
aI3840
aI1100
aI3056
aI3151
aI736
aI8028
aI2471
aI9581
aI3087
aI1523
aI8948
aI769
aI9950
aI7923
aI6489
aI8965
aI177
aI3828
aI7381
aI5038
aI9487
aI1351
aI5717
aI4365
aI8204
aI8872
aI7736
aI84
aI8350
aI8730
aI9066
aI6082
aI5542
aI200
aI7271
aI2228
aI5534
aI5829
aI6132
aI6024
aI8458
aI6667
aI9252
aI10034
aI23
aI156
aI10110
aI2187
aI3558
aI90
aI7794
aI5272
aI3288
aI128
aI7231
aI4247
aI219
aI8532
aI4850
aI6256
aI5524
aI3103
aI853
aI6330
aI14
aI4745
aI7313
aI10411
aI10285
aI1380
aI211
aI6769
aI898
aI10592
aI1876
aI2419
aI8450
aI9027
aI8611
aI6234
aI8699
aI7067
aI7747
aI7806
aI7691
aI6093
aI8676
aI3426
aI5500
aI7601
aI10556
aI1799
aI7166
aI10468
aI4110
aI2337
aI9722
aI5887
aI4860
aI8127
aI3635
aI4472
aI7363
aI7076
aI2665
aI9638
aI1362
aI5614
aI10451
aI8744
aI8128
aI2133
aI6627
aI6697
aI4503
aI2244
aI8846
aI426
aI2767
aI6557
aI3584
aI1612
aI10619
aI276
aI6220
aI7803
aI8452
aI6621
aI8420
aI1497
aI957
aI10128
aI269
aI8343
aI3708
aI7843
aI5819
aI10227
aI7640
aI8864
aI10251
aI8413
aI388
aI4592
aI7033
aI3074
aI183
aI9433
aI5853
aI5154
aI2249
aI4083
aI7549
aI5062
aI1026
aI5799
aI7679
aI6045
aI9149
aI10471
aI8903
aI8798
aI10647
aI4113
aI5962
aI849
aI6171
aI5129
aI3793
aI9952
aI479
aI5851
aI8709
aI10284
aI1730
aI3723
aI4651
aI1194
aI4216
aI10425
aI5184
aI9342
aI1128
aI3826
aI10645
aI5658
aI1469
aI6025
aI10095
aI6172
aI3173
aI7862
aI7844
aI162
aI9427
aI6264
aI1319
aI9850
aI4943
aI5543
aI4722
aI9038
aI4076
aI3966
aI4991
aI857
aI1907
aI7386
aI10520
aI6715
aI4476
aI7992
aI10234
aI7259
aI9702
aI8145
aI4896
aI6878
aI2913
aI3058
aI10424
aI3641
aI8865
aI3987
aI1135
aI6006
aI5290
aI3360
aI2018
aI1889
aI4434
aI5054
aI9641
aI581
aI4806
aI1719
aI1482
aI9114
aI4039
aI8937
aI8360
aI7657
aI6512
aI9537
aI2322
aI9958
aI305
aI10545
aI5533
aI7178
aI5435
aI3033
aI8170
aI3762
aI4963
aI4095
aI3626
aI7745
aI9540
aI2308
aI2434
aI4114
aI6882
aI6720
aI9651
aI446
aI1410
aI2381
aI6289
aI6357
aI5507
aI9538
aI3342
aI40
aI8314
aI4072
aI6190
aI8152
aI5918
aI7608
aI7074
aI9891
aI10151
aI8383
aI4833
aI3792
aI2572
aI1361
aI671
aI4766
aI6019
aI5295
aI6062
aI7308
aI6317
aI10550
aI8414
aI792
aI3841
aI10389
aI4701
aI8623
aI2523
aI3286
aI3554
aI10172
aI2076
aI9361
aI5043
aI6639
aI7885
aI7450
aI4344
aI5376
aI5275
aI3404
aI9764
aI9855
aI2970
aI6052
aI265
aI503
aI9069
aI1107
aI779
aI7661
aI3091
aI7665
aI8993
aI4744
aI5699
aI9413
aI4855
aI6995
aI3464
aI685
aI2329
aI5306
aI2744
aI5998
aI4115
aI7328
aI6719
aI1028
aI579
aI121
aI7730
aI5300
aI7045
aI4709
aI5483
aI1054
aI2756
aI7738
aI2199
aI2113
aI1068
aI5216
aI1280
aI4743
aI576
aI471
aI7880
aI1559
aI6421
aI3961
aI5358
aI1168
aI95
aI355
aI6887
aI4441
aI5016
aI10082
aI9628
aI2936
aI3016
aI8234
aI4060
aI10278
aI4865
aI4280
aI4004
aI5123
aI5025
aI1239
aI6712
aI3551
aI10462
aI5056
aI7869
aI2783
aI6856
aI743
aI9746
aI9503
aI346
aI6155
aI7567
aI2179
aI4610
aI5808
aI4197
aI1995
aI8895
aI10226
aI8938
aI8561
aI9081
aI723
aI7551
aI6655
aI4796
aI5405
aI2463
aI9064
aI7602
aI8349
aI2940
aI9842
aI10313
aI1803
aI2853
aI1390
aI9386
aI1307
aI7508
aI79
aI5825
aI1374
aI1211
aI2093
aI5695
aI2759
aI6124
aI9825
aI4649
aI6004
aI1235
aI7138
aI10414
aI82
aI6840
aI1272
aI3668
aI7615
aI1085
aI1829
aI9359
aI7867
aI5264
aI7202
aI5493
aI2046
aI4028
aI5847
aI3078
aI2549
aI8089
aI3876
aI5590
aI8688
aI9529
aI10349
aI5807
aI5985
aI9025
aI3796
aI3471
aI10232
aI3273
aI5055
aI1510
aI5431
aI6936
aI8801
aI10642
aI4581
aI9829
aI8838
aI1230
aI3191
aI5233
aI3581
aI3720
aI9559
aI7026
aI825
aI4945
aI2017
aI1162
aI9050
aI8108
aI2611
aI6423
aI3706
aI10243
aI9772
aI4224
aI2678
aI6832
aI1920
aI7712
aI1789
aI4861
aI5582
aI2095
aI3466
aI7978
aI3900
aI8156
aI1023
aI5328
aI5719
aI4335
aI202
aI598
aI656
aI3465
aI7456
aI855
aI8562
aI2740
aI2424
aI2827
aI8322
aI230
aI596
aI2132
aI5951
aI6417
aI1662
aI6728
aI8301
aI5110
aI4677
aI2390
aI2910
aI8109
aI4889
aI7358
aI2710
aI2875
aI3444
aI5174
aI3065
aI3676
aI3986
aI8029
aI4087
aI925
aI4035
aI3613
aI6760
aI8943
aI1931
aI3956
aI2353
aI6893
aI5924
aI10308
aI3763
aI6676
aI7318
aI9515
aI9547
aI9768
aI2193
aI10020
aI8686
aI5900
aI5425
aI5497
aI4315
aI6877
aI2834
aI9993
aI981
aI8246
aI10047
aI8945
aI8455
aI4486
aI6680
aI9150
aI3029
aI7201
aI5171
aI549
aI8395
aI2908
aI3326
aI8712
aI10323
aI739
aI2568
aI2412
aI5620
aI3776
aI6313
aI6711
aI8373
aI10001
aI3152
aI10354
aI511
aI8486
aI9758
aI9158
aI8735
aI10083
aI751
aI5583
aI9576
aI1558
aI9139
aI3899
aI6708
aI6473
aI4859
aI2403
aI1880
aI8987
aI7796
aI9556
aI934
aI9420
aI2808
aI9275
aI5976
aI8734
aI4433
aI9176
aI5189
aI3560
aI2305
aI205
aI3830
aI9107
aI7991
aI6178
aI5214
aI4893
aI3396
aI9498
aI9864
aI1378
aI3167
aI6670
aI8375
aI2494
aI307
aI532
aI2367
aI5748
aI9590
aI389
aI1517
aI27
aI2028
aI1445
aI195
aI5436
aI1373
aI3896
aI2303
aI753
aI4286
aI1679
aI6693
aI1835
aI1579
aI402
aI7397
aI1525
aI4170
aI5684
aI6187
aI4279
aI7812
aI8048
aI5047
aI8698
aI6855
aI2624
aI6842
aI4831
aI5910
aI8909
aI2478
aI8879
aI7120
aI4236
aI274
aI2027
aI2068
aI3579
aI838
aI7438
aI8197
aI425
aI526
aI6930
aI1518
aI4303
aI9336
aI10341
aI5081
aI4354
aI2567
aI1487
aI6205
aI4666
aI5836
aI8547
aI7109
aI4318
aI6750
aI4289
aI5202
aI9435
aI6919
aI10309
aI1092
aI9300
aI8999
aI7134
aI4582
aI6556
aI6890
aI1134
aI1261
aI4593
aI2103
aI246
aI9780
aI3357
aI2169
aI8055
aI7845
aI1583
aI4231
aI5885
aI4403
aI5221
aI3289
aI2629
aI10501
aI7539
aI5140
aI5802
aI5908
aI5889
aI3365
aI5668
aI2427
aI142
aI6382
aI8116
aI9460
aI8411
aI7040
aI556
aI7023
aI10271
aI1318
aI7144
aI10303
aI3489
aI2907
aI10614
aI6619
aI1439
aI7330
aI7030
aI5349
aI3811
aI7382
aI2198
aI8143
aI6595
aI1200
aI149
aI632
aI4920
aI4936
aI7425
aI214
aI4548
aI955
aI3285
aI4162
aI2534
aI643
aI7344
aI1355
aI1481
aI676
aI4308
aI8738
aI7071
aI3662
aI10017
aI5521
aI1759
aI947
aI2021
aI832
aI5475
aI8432
aI4252
aI6060
aI7025
aI6555
aI10589
aI4420
aI9682
aI4184
aI3810
aI2431
aI3993
aI1114
aI1622
aI3943
aI2906
aI9181
aI9557
aI6564
aI3518
aI4827
aI4261
aI1961
aI9812
aI210
aI7471
aI7582
aI8097
aI7472
aI9551
aI10193
aI8120
aI5277
aI2954
aI4042
aI1322
aI8403
aI2857
aI1418
aI6212
aI7244
aI10439
aI3756
aI10386
aI3276
aI4459
aI1584
aI1111
aI3963
aI7131
aI3561
aI10186
aI1791
aI4980
aI3231
aI4142
aI2437
aI3441
aI10315
aI8565
aI9086
aI9528
aI8132
aI5409
aI8036
aI2379
aI7587
aI8302
aI7739
aI7047
aI312
aI1980
aI5041
aI6506
aI5907
aI8031
aI5812
aI3543
aI8852
aI10438
aI2674
aI5883
aI5312
aI9907
aI9332
aI5473
aI7813
aI10633
aI3923
aI1314
aI114
aI7340
aI1286
aI2082
aI73
aI9022
aI8402
aI8836
aI8335
aI292
aI5434
aI5355
aI4979
aI3131
aI7050
aI8642
aI7002
aI5592
aI1538
aI49
aI9221
aI1074
aI5552
aI10320
aI6593
aI3275
aI5229
aI6862
aI1148
aI1712
aI10061
aI1158
aI667
aI6640
aI10580
aI9463
aI7504
aI2163
aI1494
aI4994
aI9908
aI9698
aI688
aI9769
aI5735
aI9951
aI6949
aI1689
aI7034
aI759
aI7954
aI8125
aI1717
aI7437
aI6993
aI1668
aI5565
aI135
aI1994
aI6539
aI10094
aI1199
aI10267
aI10477
aI5513
aI718
aI4305
aI2912
aI9598
aI9397
aI2071
aI6297
aI1756
aI2530
aI4995
aI4642
aI4119
aI3614
aI6841
aI2339
aI1648
aI4084
aI2608
aI1073
aI2646
aI1432
aI9754
aI2766
aI2400
aI7894
aI6221
aI8337
aI6971
aI4193
aI6144
aI2679
aI6420
aI5224
aI6980
aI4108
aI6729
aI2505
aI2554
aI81
aI1850
aI8660
aI6077
aI3646
aI5690
aI9109
aI6008
aI5919
aI10562
aI9284
aI3146
aI5271
aI2024
aI9212
aI7252
aI6290
aI8554
aI5844
aI2191
aI9785
aI7723
aI894
aI430
aI2585
aI2932
aI8926
aI10335
aI2145
aI547
aI1240
aI3154
aI844
aI8147
aI2009
aI436
aI10264
aI5089
aI4050
aI185
aI2299
aI9916
aI2848
aI10084
aI5737
aI868
aI1491
aI1288
aI776
aI5255
aI5749
aI4769
aI4398
aI5557
aI5980
aI7442
aI2043
aI6672
aI1721
aI76
aI2256
aI8299
aI10617
aI7496
aI8266
aI6279
aI2662
aI2815
aI2189
aI1647
aI2342
aI9554
a(lp8
I2528
aI7643
aI4146
aI2823
aI392
aI393
aI3171
aI8020
aI8785
aI9065
aI9494
aI2715
aI6037
aI7648
aI2032
aI6281
aI2188
aI7180
aI6579
aI1006
aI4212
aI5371
aI2993
aI4461
aI766
aI7669
aI686
aI2677
aI1131
aI4422
aI7060
aI3081
aI10629
aI7973
aI5921
aI8249
aI4971
aI2196
aI353
aI1375
aI9996
aI3088
aI12
aI102
aI3313
aI3398
aI3671
aI6388
aI9341
aI6518
aI5084
aI10557
aI6612
aI5125
aI9895
aI4962
aI3868
aI10166
aI1972
aI3913
aI2229
aI4189
aI6263
aI3158
aI7532
aI7865
aI10434
aI5249
aI5254
aI5465
aI1173
aI9374
aI3654
aI2458
aI9596
aI8454
aI5894
aI8051
aI6283
aI10298
aI8692
aI937
aI6395
aI918
aI9
aI1195
aI3931
aI6122
aI1786
aI9437
aI594
aI5724
aI2696
aI9521
aI10593
aI6813
aI10658
aI9465
aI8421
aI1886
aI3880
aI9847
aI2055
aI3567
aI4223
aI9760
aI3664
aI8084
aI8294
aI4561
aI1711
aI3239
aI9479
aI3860
aI2524
aI120
aI9398
aI8753
aI658
aI10631
aI1335
aI10080
aI3085
aI8208
aI8114
aI3808
aI6232
aI1665
aI8387
aI9123
aI7215
aI2259
aI6861
aI10099
aI6268
aI1728
aI4242
aI2080
aI2753
aI367
aI737
aI10314
aI1172
aI3894
aI9013
aI356
aI1078
aI516
aI2051
aI460
aI2634
aI8480
aI10381
aI6854
aI7800
aI1066
aI9059
aI4357
aI10322
aI10541
aI3886
aI5806
aI8172
aI1095
aI5703
aI6439
aI1836
aI10657
aI810
aI2881
aI8168
aI3710
aI6974
aI2217
aI2156
aI2977
aI3159
aI4934
aI166
aI10547
aI10586
aI3209
aI882
aI7918
aI3854
aI1739
aI2574
aI342
aI5739
aI6193
aI207
aI8066
aI2852
aI8268
aI3798
aI9819
aI6542
aI653
aI7226
aI10032
aI3941
aI1323
aI9141
aI6054
aI6836
aI7704
aI4664
aI1602
aI3145
aI7876
aI878
aI3019
aI4248
aI6235
aI8589
aI5537
aI2716
aI3211
aI10608
aI1586
aI10124
aI6895
aI2014
aI7699
aI684
aI9740
aI5589
aI7999
aI2691
aI5170
aI3882
aI5466
aI1921
aI10571
aI2310
aI221
aI624
aI4055
aI6986
aI4030
aI380
aI4063
aI1896
aI6544
aI8607
aI1634
aI1449
aI6918
aI10339
aI22
aI1124
aI9486
aI5121
aI651
aI4017
aI9394
aI3759
aI8556
aI139
aI9917
aI9456
aI7871
aI6789
aI4417
aI1422
aI9734
aI5294
aI2284
aI5387
aI2533
aI2172
aI8584
aI4178
aI9975
aI4568
aI8257
aI2461
aI4687
aI3160
aI4960
aI7544
aI6246
aI9247
aI6373
aI10120
aI8967
aI2475
aI10207
aI1837
aI9506
aI6969
aI3476
aI7560
aI4599
aI1295
aI6530
aI197
aI7598
aI8311
aI7132
aI3116
aI10210
aI1391
aI10474
aI808
aI4506
aI724
aI2923
aI5023
aI5995
aI3319
aI8803
aI9804
aI7211
aI3754
aI4989
aI7590
aI1629
aI3316
aI8285
aI7476
aI1644
aI10093
aI1204
aI7267
aI9495
aI10400
aI4149
aI3639
aI5015
aI7934
aI2192
aI1802
aI9206
aI8578
aI7758
aI1630
aI10525
aI897
aI5554
aI7088
aI6366
aI4767
aI2289
aI1654
aI2569
aI9243
aI6823
aI6784
aI6369
aI6508
aI2845
aI700
aI3519
aI1255
aI7592
aI6000
aI9902
aI8721
aI3636
aI3459
aI4706
aI5681
aI9250
aI6327
aI209
aI7054
aI4442
aI831
aI6838
aI1735
aI8273
aI2298
aI8471
aI2952
aI6237
aI5587
aI8126
aI9078
aI1252
aI9779
aI5333
aI4317
aI10330
aI5183
aI2726
aI487
aI2453
aI4204
aI5854
aI7910
aI2540
aI7216
aI315
aI7594
aI7053
aI9747
aI2800
aI4695
aI9269
aI5598
aI7791
aI7566
aI85
aI1121
aI6987
aI2771
aI6688
aI489
aI5828
aI7497
aI361
aI9443
aI566
aI2241
aI4828
aI1193
aI451
aI3430
aI1585
aI8329
aI10650
aI154
aI6261
aI4892
aI9887
aI6743
aI7585
aI7823
aI1884
aI9985
aI4353
aI4777
aI725
aI7013
aI9017
aI1914
aI3093
aI5450
aI2702
aI10491
aI2186
aI10493
aI9209
aI6106
aI5429
aI9207
aI7441
aI7670
aI8560
aI6018
aI5635
aI8437
aI434
aI3824
aI922
aI5031
aI7755
aI1454
aI9245
aI7477
aI9349
aI824
aI1284
aI2942
aI193
aI9449
aI5971
aI6480
aI3788
aI8764
aI6757
aI10209
aI5420
aI1861
aI247
aI8954
aI7368
aI1838
aI8181
aI7191
aI4773
aI3174
aI9417
aI1765
aI4637
aI4012
aI1606
aI2279
aI3607
aI7771
aI7282
aI773
aI6211
aI8670
aI888
aI9945
aI10561
aI2315
aI5760
aI407
aI10217
aI2119
aI8714
aI7089
aI10485
aI8103
aI8992
aI7394
aI6090
aI8997
aI734
aI1854
aI1106
aI7409
aI10146
aI6985
aI8106
aI5779
aI2266
aI7564
aI9863
aI10559
aI4961
aI6909
aI7428
aI8334
aI5952
aI1743
aI3905
aI8498
aI3823
aI3721
atp9
a((lp10
I2528
aI155
aI7354
aI7643
aI9110
aI7268
aI9104
aI938
aI913
aI4146
aI7825
aI2823
aI392
aI8649
aI9510
aI3959
aI3358
aI8217
aI4916
aI6112
aI7290
aI393
aI8658
aI1393
aI9844
aI1691
aI9019
aI5570
aI3171
aI26
aI5235
aI9939
aI8020
aI675
aI5514
aI8785
aI9065
aI9494
aI7616
aI5097
aI2690
aI5006
aI690
aI2715
aI4145
aI6625
aI6037
aI8321
aI4790
aI8305
aI325
aI7648
aI130
aI10568
aI2032
aI1043
aI3232
aI391
aI2395
aI10496
aI2273
aI6664
aI4618
aI6281
aI9566
aI6215
aI5925
aI5484
aI8075
aI2188
aI6302
aI7180
aI6059
aI9291
aI1928
aI4632
aI6579
aI932
aI1006
aI1051
aI9105
aI3451
aI99
aI4212
aI1271
aI9784
aI3804
aI6531
aI8300
aI6375
aI5399
aI5842
aI4049
aI592
aI577
aI4160
aI5371
aI2993
aI4461
aI7847
aI766
aI7669
aI686
aI2677
aI1131
aI7455
aI3750
aI10441
aI4422
aI5139
aI3952
aI9418
aI7176
aI2084
aI2214
aI3039
aI3980
aI8407
aI1347
aI9491
aI7060
aI3081
aI271
aI9563
aI10634
aI4753
aI1260
aI8564
aI3092
aI9383
aI5169
aI2894
aI6846
aI10629
aI8549
aI2653
aI7973
aI3251
aI5128
aI4899
aI2529
aI1270
aI223
aI3527
aI4376
aI6652
aI10507
aI5783
aI8618
aI248
aI7578
aI1778
aI3800
aI6956
aI5921
aI2416
aI3667
aI1567
aI8372
aI5987
aI2578
aI10252
aI5316
aI847
aI8249
aI3128
aI4069
aI5989
aI588
aI7528
aI852
aI326
aI4971
aI5040
aI7952
aI9500
aI5800
aI2196
aI1684
aI3113
aI353
aI8787
aI7644
aI4910
aI9138
aI1375
aI7772
aI6015
aI10135
aI835
aI7383
aI3327
aI6778
aI1722
aI4556
aI992
aI359
aI7100
aI1458
aI8594
aI10518
aI5212
aI2141
aI9261
aI7175
aI6089
aI9996
aI10
aI258
aI7159
aI3653
aI6874
aI5392
aI3088
aI12
aI982
aI940
aI2675
aI102
aI9723
aI1405
aI6457
aI3313
aI1116
aI3398
aI8493
aI2822
aI7543
aI6307
aI3671
aI3372
aI6388
aI5209
aI9645
aI5580
aI9256
aI9341
aI6518
aI5084
aI3149
aI9990
aI3638
aI2587
aI7141
aI6535
aI6702
aI10044
aI7969
aI7799
aI5605
aI3343
aI6585
aI2467
aI9969
aI4159
aI5019
aI7817
aI823
aI9032
aI6928
aI3861
aI10391
aI10557
aI2282
aI10420
aI6612
aI7769
aI7631
aI3150
aI6298
aI5125
aI9895
aI3867
aI2705
aI5172
aI4962
aI840
aI3868
aI10166
aI1972
aI5627
aI2775
aI8632
aI3913
aI7853
aI3972
aI919
aI6740
aI2864
aI8742
aI6818
aI2229
aI3057
aI1707
aI9721
aI2445
aI4189
aI6263
aI7840
aI4913
aI3158
aI7532
aI4467
aI889
aI2632
aI8495
aI7865
aI10434
aI5249
aI8897
aI5254
aI1495
aI3946
aI3878
aI1248
aI5220
aI4668
aI5465
aI374
aI7681
aI7562
aI1173
aI8363
aI97
aI9374
aI6618
aI6022
aI3654
aI3784
aI1623
aI9279
aI8318
aI2458
aI7326
aI9596
aI2589
aI7684
aI8454
aI8635
aI5894
aI1017
aI1611
aI9630
aI1615
aI8207
aI6254
aI708
aI9802
aI5953
aI1021
aI7108
aI6007
aI8370
aI5815
aI4661
aI7240
aI9490
aI8051
aI3328
aI3472
aI2562
aI2091
aI7081
aI6283
aI10298
aI8692
aI937
aI7150
aI5053
aI8308
aI9575
aI6216
aI3018
aI8566
aI10288
aI4266
aI4836
aI1667
aI6395
aI918
aI10297
aI3531
aI9
aI1195
aI2281
aI3474
aI8423
aI3699
aI10551
aI8118
aI3931
aI6122
aI1786
aI689
aI6115
aI9437
aI6570
aI8150
aI594
aI6291
aI5724
aI1428
aI2696
aI6071
aI8925
aI9521
aI9856
aI7725
aI1692
aI2510
aI10593
aI8821
aI670
aI3469
aI7404
aI5751
aI6813
aI10658
aI9465
aI9659
aI3176
aI8421
aI10375
aI6940
aI7373
aI1886
aI2851
aI3537
aI7941
aI6888
aI8136
aI92
aI3880
aI3453
aI9847
aI2055
aI10387
aI3567
aI4223
aI2370
aI6430
aI4723
aI3596
aI7157
aI9760
aI5168
aI3395
aI9872
aI8691
aI4927
aI2166
aI6013
aI10455
aI9818
aI4560
aI10031
aI3912
aI3664
aI9458
aI8084
aI3907
aI8294
aI4561
aI8453
aI1711
aI6293
aI4853
aI10077
aI220
aI3239
aI9479
aI8693
aI3860
aI2524
aI9693
aI120
aI9398
aI492
aI1890
aI8753
aI658
aI10631
aI1335
aI3475
aI3729
aI365
aI3697
aI10176
aI6717
aI264
aI9162
aI7225
aI2283
aI522
aI5672
aI3746
aI9792
aI10409
aI10080
aI1493
aI9727
aI7277
aI3085
aI8208
aI10579
aI5744
aI2974
aI8114
aI7943
aI3808
aI8072
aI9826
aI8362
aI6232
aI10195
aI3001
aI6731
aI3178
aI1665
aI5994
aI3790
aI6920
aI8387
aI8819
aI9123
aI563
aI7215
aI4163
aI4527
aI2259
aI1984
aI7881
aI5280
aI6861
aI4608
aI10099
aI6268
aI1728
aI4468
aI8604
aI7841
aI4832
aI4164
aI3294
aI5789
aI3346
aI4805
aI4242
aI10282
aI1793
aI8412
aI783
aI1941
aI5810
aI9048
aI2147
aI5445
aI6948
aI2080
aI2753
aI5090
aI6692
aI367
aI2831
aI4926
aI1570
aI525
aI2613
aI737
aI10314
aI1172
aI4314
aI2818
aI10338
aI9188
aI3894
aI5334
aI3627
aI9013
aI3593
aI356
aI1078
aI516
aI2051
aI10096
aI9600
aI3983
aI3249
aI763
aI460
aI2634
aI8480
aI9204
aI1968
aI9781
aI1858
aI5124
aI10381
aI6362
aI6854
aI2668
aI10610
aI2844
aI33
aI232
aI9963
aI6287
aI8515
aI9558
aI4368
aI9606
aI5366
aI7697
aI7800
aI7403
aI8361
aI4732
aI2697
aI5375
aI4364
aI1066
aI9059
aI907
aI3816
aI515
aI4357
aI5612
aI2799
aI3623
aI1716
aI2727
aI4997
aI10322
aI8435
aI10638
aI1187
aI7981
aI2079
aI6432
aI10541
aI6501
aI4151
aI3886
aI7677
aI1392
aI5806
aI9457
aI8845
aI10567
aI8172
aI8058
aI1095
aI6561
aI5703
aI465
aI6439
aI1836
aI8425
aI9974
aI10657
aI810
aI8392
aI4761
aI2881
aI5794
aI8168
aI8310
aI3710
aI7387
aI1637
aI4219
aI706
aI6974
aI504
aI5048
aI5880
aI1724
aI10223
aI2217
aI6408
aI1062
aI4818
aI8636
aI6092
aI2156
aI9231
aI222
aI4232
aI2274
aI5711
aI2977
aI2275
aI3159
aI94
aI4333
aI1687
aI4934
aI6374
aI6699
aI166
aI10547
aI4648
aI3990
aI6703
aI5253
aI9126
aI2118
aI2285
aI1440
aI10586
aI10102
aI3209
aI4825
aI2139
aI395
aI882
aI3182
aI8696
aI9143
aI5444
aI2075
aI9738
aI7918
aI1709
aI3854
aI2824
aI1739
aI6931
aI8117
aI5726
aI2574
aI342
aI5739
aI6575
aI2750
aI5356
aI5339
aI972
aI3566
aI3340
aI3698
aI6904
aI4307
aI9217
aI6193
aI207
aI7465
aI9055
aI8910
aI8066
aI2551
aI2852
aI8582
aI1499
aI101
aI8268
aI3798
aI9819
aI6542
aI653
aI9531
aI8746
aI7226
aI5470
aI1236
aI9817
aI316
aI10032
aI8732
aI568
aI6577
aI1917
aI7633
aI2243
aI8790
aI557
aI10399
aI186
aI5781
aI3941
aI1170
aI607
aI8743
aI3250
aI2951
aI7462
aI1323
aI1035
aI199
aI10615
aI7565
aI1666
aI9141
aI10436
aI8741
aI6054
aI4298
aI6146
aI5478
aI2291
aI1400
aI6137
aI5893
aI9073
aI9815
aI6276
aI6836
aI3420
aI7704
aI4664
aI9117
aI1275
aI3726
aI3347
aI1052
aI8840
aI9604
aI6143
aI259
aI7919
aI1602
aI5897
aI10108
aI8013
aI4559
aI3145
aI5661
aI2721
aI7876
aI1591
aI6937
aI5736
aI5192
aI9154
aI8225
aI7668
aI9797
aI9173
aI3686
aI6140
aI878
aI9854
aI807
aI2121
aI5238
aI3401
aI3019
aI7427
aI6130
aI1839
aI2206
aI5160
aI6914
aI1201
aI5929
aI3599
aI4248
aI8473
aI7667
aI8567
aI5876
aI6235
aI5161
aI2140
aI6623
aI8589
aI5537
aI9867
aI2716
aI6669
aI1057
aI5279
aI8526
aI8789
aI4351
aI1697
aI5242
aI591
aI2680
aI3211
aI1703
aI2097
aI10608
aI6101
aI4391
aI1586
aI5037
aI7759
aI287
aI6510
aI10124
aI6895
aI2126
aI7962
aI9774
aI8174
aI3568
aI7418
aI9133
aI5934
aI4383
aI10530
aI2014
aI3545
aI7314
aI7699
aI10572
aI1315
aI9715
aI1120
aI684
aI569
aI8904
aI3024
aI7638
aI9740
aI1488
aI2689
aI5589
aI10459
aI3040
aI841
aI7740
aI7999
aI2691
aI5170
aI6151
aI8054
aI6160
aI3882
aI5466
aI1921
aI7439
aI366
aI10571
aI4811
aI2310
aI4615
aI4620
aI4284
aI6368
aI221
aI9876
aI624
aI10490
aI4055
aI5669
aI6986
aI9127
aI7860
aI5886
aI2707
aI4547
aI3312
aI4834
aI4202
aI10544
aI2007
aI4030
aI7256
aI4338
aI380
aI8442
aI239
aI4430
aI5314
aI4063
aI7636
aI1896
aI5207
aI8949
aI9986
aI6544
aI10262
aI8607
aI3405
aI9936
aI7737
aI1634
aI1843
aI9318
aI8828
aI1449
aI9102
aI3027
aI6918
aI6922
aI9973
aI3709
aI4169
aI5082
aI439
aI9282
aI9627
aI7764
aI10339
aI2465
aI4658
aI22
aI1124
aI4066
aI9486
aI6968
aI6443
aI10588
aI3734
aI5121
aI651
aI4017
aI9394
aI8768
aI9927
aI518
aI5818
aI1519
aI9509
aI6826
aI10412
aI10337
aI9968
aI6965
aI6515
aI4751
aI7838
aI2837
aI8069
aI2278
aI3133
aI9136
aI5002
aI3072
aI5522
aI1676
aI7083
aI8881
aI2261
aI6824
aI8274
aI3759
aI1708
aI4158
aI9012
aI10630
aI8556
aI9063
aI139
aI9917
aI5502
aI6872
aI217
aI9456
aI8275
aI1231
aI7871
aI8380
aI5104
aI8462
aI1192
aI9550
aI10249
aI6789
aI4417
aI1247
aI1422
aI8922
aI9572
aI2695
aI371
aI4244
aI895
aI9940
aI9734
aI9989
aI2065
aI4781
aI5294
aI272
aI8543
aI3840
aI1100
aI3056
aI2284
aI3151
aI736
aI8028
aI2471
aI9581
aI1523
aI769
aI9950
aI7923
aI177
aI7381
aI5038
aI9487
aI1351
aI5387
aI5717
aI4365
aI8204
aI7736
aI8350
aI9066
aI6082
aI2533
aI5542
aI2172
aI8584
aI200
aI4178
aI7271
aI9975
aI4568
aI2228
aI5534
aI8257
aI5829
aI6132
aI6024
aI6667
aI9252
aI2461
aI23
aI2187
aI3558
aI90
aI4687
aI7794
aI5272
aI3160
aI128
aI7231
aI4960
aI219
aI8532
aI5524
aI7544
aI3103
aI853
aI6246
aI9247
aI14
aI4745
aI7313
aI6373
aI211
aI6769
aI10120
aI8967
aI10592
aI1876
aI2419
aI8611
aI6234
aI7067
aI7747
aI2475
aI10207
aI1837
aI6093
aI7601
aI9506
aI6969
aI7166
aI10468
aI3476
aI4110
aI9722
aI4860
aI8127
aI3635
aI4472
aI7560
aI7076
aI2665
aI4599
aI5614
aI10451
aI8744
aI8128
aI6627
aI6697
aI4503
aI2244
aI8846
aI2767
aI3584
aI1612
aI10619
aI276
aI7803
aI6621
aI8420
aI1497
aI10128
aI269
aI8343
aI3708
aI5819
aI1295
aI10227
aI8864
aI10251
aI6530
aI8413
aI197
aI7598
aI4592
aI8311
aI7132
aI3074
aI183
aI9433
aI5853
aI3116
aI5154
aI2249
aI10210
aI4083
aI5062
aI1391
aI1026
aI6045
aI9149
aI10471
aI10474
aI808
aI8903
aI8798
aI10647
aI4113
aI4506
aI5962
aI724
aI2923
aI6171
aI5129
aI3793
aI9952
aI5023
aI479
aI8709
aI10284
aI1730
aI3723
aI4651
aI5995
aI1194
aI4216
aI10425
aI5184
aI9342
aI3319
aI8803
aI9804
aI7211
aI1128
aI3754
aI4989
aI10645
aI1469
aI6025
aI6172
aI3173
aI7862
aI162
aI9427
aI7590
aI1629
aI6264
aI1319
aI3316
aI5543
aI8285
aI4076
aI7476
aI3966
aI4991
aI857
aI7386
aI1644
aI6715
aI10093
aI7992
aI1204
aI7267
aI9495
aI7259
aI9702
aI8145
aI4896
aI6878
aI2913
aI3058
aI3641
aI8865
aI3987
aI1135
aI6006
aI5290
aI2018
aI4434
aI5054
aI9641
aI581
aI10400
aI4149
aI3639
aI5015
aI4039
aI8937
aI8360
aI7657
aI7934
aI6512
aI9537
aI9958
aI10545
aI5533
aI7178
aI5435
aI3033
aI2192
aI3762
aI4963
aI1802
aI7745
aI9540
aI2308
aI2434
aI6882
aI9206
aI6720
aI8578
aI1410
aI2381
aI6289
aI5507
aI9538
aI7758
aI4072
aI1630
aI8152
aI5918
aI7608
aI7074
aI9891
aI10525
aI8383
aI4833
aI3792
aI2572
aI1361
aI671
aI6019
aI897
aI5554
aI5295
aI6062
aI6317
aI10550
aI8414
aI792
aI3841
aI7088
aI10389
aI6366
aI4767
aI4701
aI8623
aI2523
aI3286
aI3554
aI10172
aI2289
aI1654
aI2076
aI9361
aI5043
aI2569
aI7885
aI5376
aI5275
aI9243
aI3404
aI6823
aI9764
aI6784
aI2970
aI6052
aI6369
aI6508
aI265
aI503
aI9069
aI1107
aI7661
aI3091
aI2845
aI8993
aI4744
aI5699
aI9413
aI4855
aI6995
aI3464
aI685
aI2329
aI5306
aI5998
aI700
aI3519
aI4115
aI7328
aI6719
aI1255
aI7592
aI1028
aI579
aI121
aI7730
aI5300
aI7045
aI4709
aI2756
aI7738
aI2113
aI1068
aI1280
aI4743
aI576
aI6000
aI9902
aI7880
aI8721
aI3636
aI1559
aI6421
aI1168
aI95
aI355
aI6887
aI4441
aI5016
aI3459
aI9628
aI3016
aI8234
aI4060
aI10278
aI4280
aI4004
aI5025
aI1239
aI3551
aI10462
aI5056
aI7869
aI6856
aI743
aI9503
aI346
aI6155
aI7567
aI2179
aI5808
aI4706
aI4197
aI5681
aI1995
aI8895
aI10226
aI8561
aI9250
aI723
aI6655
aI4796
aI6327
aI5405
aI2463
aI9064
aI7602
aI209
aI8349
aI2940
aI9842
aI1803
aI1390
aI9386
aI7508
aI79
aI5825
aI1374
aI7054
aI4442
aI1211
aI831
aI2093
aI6838
aI6124
aI1735
aI9825
aI6004
aI10414
aI8273
aI82
aI6840
aI2298
aI8471
aI3668
aI7615
aI1085
aI1829
aI9359
aI5264
aI7202
aI5493
aI2952
aI6237
aI2046
aI5587
aI4028
aI5847
aI3078
aI8089
aI3876
aI5590
aI8126
aI9078
aI1252
aI9529
aI9779
aI5985
aI3796
aI3471
aI10232
aI5333
aI3273
aI5055
aI4317
aI1510
aI6936
aI10330
aI8801
aI5183
aI2726
aI10642
aI487
aI4581
aI9829
aI8838
aI1230
aI2453
aI5233
aI4204
aI7026
aI4945
aI5854
aI2017
aI8108
aI2611
aI7910
aI2540
aI10243
aI7216
aI9772
aI2678
aI315
aI1920
aI7712
aI1789
aI4861
aI7594
aI5582
aI7053
aI2095
aI9747
aI2800
aI7978
aI4695
aI3900
aI8156
aI1023
aI5328
aI5719
aI4335
aI202
aI598
aI656
aI3465
aI7456
aI855
aI8562
aI2740
aI2424
aI2827
aI8322
aI9269
aI5598
aI7791
aI5951
aI6417
aI7566
aI6728
aI4677
aI2390
aI2910
aI4889
aI7358
aI85
aI5174
aI1121
aI6987
aI8029
aI4087
aI925
aI4035
aI3613
aI8943
aI1931
aI2771
aI3956
aI2353
aI6688
aI489
aI3763
aI5828
aI7318
aI9515
aI7497
aI9547
aI9768
aI361
aI10020
aI9443
aI8686
aI5900
aI5425
aI5497
aI566
aI6877
aI2241
aI9993
aI981
aI8246
aI10047
aI4828
aI1193
aI8455
aI451
aI4486
aI6680
aI9150
aI3430
aI1585
aI5171
aI549
aI8395
aI3326
aI10323
aI739
aI8329
aI2568
aI2412
aI5620
aI6313
aI6711
aI8373
aI10001
aI8486
aI9758
aI9158
aI8735
aI10083
aI751
aI5583
aI10650
aI9576
aI154
aI1558
aI9139
aI3899
aI6708
aI6261
aI4859
aI2403
aI1880
aI8987
aI7796
aI9556
aI4892
aI934
aI9420
aI2808
aI9275
aI9887
aI6743
aI7585
aI5976
aI7823
aI8734
aI9176
aI5189
aI1884
aI2305
aI205
aI3830
aI9985
aI4353
aI6178
aI4777
aI725
aI4893
aI9864
aI3167
aI7013
aI2367
aI5748
aI9590
aI389
aI1517
aI27
aI9017
aI1445
aI1914
aI3093
aI5436
aI5450
aI3896
aI2303
aI4286
aI1679
aI1835
aI1579
aI402
aI2702
aI1525
aI10491
aI2186
aI4170
aI5684
aI6187
aI4279
aI7812
aI10493
aI8048
aI5047
aI8698
aI6855
aI2624
aI6842
aI4831
aI9209
aI6106
aI5910
aI8909
aI2478
aI8879
aI4236
aI274
aI2068
aI3579
aI5429
aI9207
aI7438
aI8197
aI425
aI526
aI6930
aI1518
aI4303
aI7441
aI9336
aI7670
aI5081
aI8560
aI2567
aI6205
aI6018
aI8547
aI5635
aI8437
aI7109
aI4318
aI6750
aI4289
aI5202
aI434
aI9435
aI3824
aI10309
aI922
aI9300
aI8999
aI5031
aI6556
aI7755
aI1454
aI6890
aI1134
aI9245
aI7477
aI4593
aI9349
aI2103
aI246
aI3357
aI2169
aI8055
aI1583
aI824
aI4231
aI5885
aI4403
aI1284
aI3289
aI2629
aI2942
aI10501
aI7539
aI5140
aI193
aI5802
aI5908
aI9449
aI5889
aI3365
aI5668
aI2427
aI142
aI6382
aI8116
aI9460
aI5971
aI8411
aI7040
aI556
aI10271
aI1318
aI6480
aI7144
aI10303
aI3788
aI8764
aI6757
aI2907
aI10614
aI6619
aI7330
aI10209
aI7382
aI2198
aI5420
aI1861
aI8143
aI6595
aI1200
aI149
aI4920
aI4936
aI4548
aI955
aI4162
aI643
aI247
aI7344
aI1355
aI8954
aI1481
aI7368
aI676
aI4308
aI8738
aI3662
aI10017
aI1838
aI5521
aI1759
aI947
aI2021
aI8181
aI832
aI8432
aI6060
aI7191
aI7025
aI6555
aI10589
aI4420
aI9682
aI3810
aI2431
aI4773
aI1114
aI3943
aI3174
aI9417
aI9181
aI9557
aI6564
aI3518
aI4261
aI1765
aI1961
aI210
aI7471
aI7582
aI8097
aI7472
aI9551
aI10193
aI5277
aI2954
aI4042
aI1322
aI8403
aI2857
aI1418
aI6212
aI4637
aI7244
aI10439
aI3756
aI4012
aI10386
aI3276
aI4459
aI1584
aI1111
aI7131
aI3561
aI1606
aI1791
aI4980
aI3231
aI4142
aI2437
aI3441
aI10315
aI8565
aI2279
aI9086
aI8132
aI8036
aI2379
aI312
aI6506
aI8031
aI5812
aI8852
aI10438
aI2674
aI5883
aI5312
aI3607
aI7771
aI7282
aI773
aI6211
aI9907
aI9332
aI5473
aI7813
aI8670
aI1314
aI114
aI888
aI9945
aI73
aI9022
aI8335
aI10561
aI2315
aI292
aI5355
aI3131
aI7050
aI8642
aI7002
aI5760
aI9221
aI407
aI1074
aI5552
aI10320
aI6593
aI3275
aI6862
aI1148
aI10217
aI1712
aI10061
aI2119
aI1158
aI667
aI6640
aI10580
aI9463
aI1494
aI4994
aI9908
aI8714
aI7089
aI9698
aI688
aI9769
aI5735
aI9951
aI10485
aI8103
aI8992
aI7394
aI1689
aI7034
aI8125
aI1668
aI6090
aI5565
aI8997
aI135
aI1994
aI6539
aI10094
aI1199
aI10267
aI10477
aI5513
aI4305
aI2912
aI9598
aI9397
aI2071
aI734
aI6297
aI1756
aI2530
aI1854
aI4995
aI4642
aI1106
aI6841
aI7409
aI1073
aI2646
aI1432
aI9754
aI2766
aI7894
aI6221
aI8337
aI4193
aI6144
aI6420
aI5224
aI4108
aI2505
aI2554
aI81
aI10146
aI8660
aI6985
aI6077
aI3646
aI5690
aI8106
aI9109
aI5779
aI2266
aI10562
aI9284
aI2024
aI9212
aI7252
aI6290
aI8554
aI5844
aI7564
aI2191
aI9785
aI7723
aI894
aI430
aI9863
aI2585
aI10559
aI2932
aI8926
aI10335
aI4961
aI547
aI1240
aI3154
aI6909
aI2009
aI436
aI10264
aI5089
aI4050
aI7428
aI8334
aI185
aI2299
aI5952
aI1743
aI3905
aI2848
aI5737
aI868
aI1491
aI776
aI8498
aI5255
aI5749
aI4398
aI5557
aI5980
aI7442
aI2043
aI6672
aI1721
aI2256
aI8299
aI10617
aI3823
aI7496
aI8266
aI2662
aI3721
aI2189
aI1647
aI2342
aI9554
a(lp11
I9271
aI778
aI6245
aI7149
aI6206
aI441
aI2114
aI873
aI2537
aI4260
aI10221
aI6139
aI854
aI10327
aI8236
aI5503
aI1999
aI2990
aI3069
aI6351
aI1642
aI5593
aI2441
aI3274
aI4983
aI6990
aI2958
aI7621
aI5660
aI6624
aI10312
aI10596
aI6348
aI9033
aI4437
aI9351
aI10062
aI10055
aI5237
aI2934
aI2364
aI5344
aI4890
aI2730
aI8410
aI10499
aI6058
aI5857
aI3153
aI2983
aI1688
aI7263
aI2220
aI6100
aI6427
aI2002
aI5666
aI7470
aI10480
aI10524
aI3331
aI7882
aI4885
aI756
aI531
aI2380
aI1163
aI1960
aI926
aI7058
aI8929
aI9480
aI9165
aI2714
aI2369
aI1976
aI8098
aI68
aI4984
aI10329
aI6851
aI1154
aI6513
aI6020
aI7852
aI879
aI694
aI1767
aI2693
aI8057
aI1938
aI86
aI6044
aI3108
aI2020
aI251
aI7889
aI2980
aI9716
aI10296
aI3220
aI8887
aI8756
aI1779
aI8679
aI8296
aI7711
aI3436
aI109
aI4181
aI7133
aI8356
aI3196
aI4033
aI4947
aI620
aI2986
aI5026
aI3865
aI2345
aI3611
aI9144
aI881
aI2415
aI9568
aI9896
aI9387
aI6033
aI7196
aI7337
aI10182
aI409
aI7574
aI6631
aI3996
aI8017
aI6569
aI1281
aI6709
aI7974
aI4737
aI7233
aI3203
aI8766
aI5837
aI4255
aI7709
aI1963
aI192
aI4653
aI8138
aI8073
aI5039
aI2501
aI3229
aI3454
aI5608
aI2087
aI4891
aI10540
aI1147
aI4595
aI1108
aI2294
aI2348
aI4996
aI9932
aI5262
aI7423
aI3143
aI6900
aI5863
aI7377
aI1243
aI7702
aI2184
aI234
aI169
aI8913
aI7306
aI4465
aI10194
aI1459
aI10380
aI5141
aI2344
aI9195
aI10456
aI7558
aI7979
aI4089
aI8229
aI3523
aI4481
aI8401
aI6407
aI2450
aI3297
aI6484
aI650
aI3337
aI3017
aI4415
aI5634
aI10486
aI9419
aI8916
aI13
aI1465
aI2012
aI4562
aI1729
aI4452
aI313
aI7632
aI2606
aI7895
aI3785
aI5127
aI7887
aI6580
aI4634
aI7828
aI9325
aI8891
aI3094
aI3261
aI5284
aI1956
aI3577
aI1309
aI2737
aI6524
aI6075
aI1202
aI4306
aI6260
aI9811
aI4469
aI4250
aI6790
aI2550
aI8163
aI115
aI4176
aI7043
aI5145
aI3087
aI8948
aI6489
aI8965
aI3828
aI8872
aI84
aI8730
aI8458
aI10034
aI156
aI10110
aI3288
aI4247
aI4850
aI6256
aI6330
aI10411
aI10285
aI1380
aI898
aI8450
aI9027
aI8699
aI7806
aI7691
aI8676
aI3426
aI5500
aI10556
aI1799
aI2337
aI5887
aI7363
aI9638
aI1362
aI2133
aI426
aI6557
aI6220
aI8452
aI957
aI7843
aI7640
aI388
aI7033
aI7549
aI5799
aI7679
aI849
aI5851
aI3826
aI5658
aI10095
aI7844
aI9850
aI4943
aI4722
aI9038
aI1907
aI10520
aI4476
aI10234
aI10424
aI3360
aI1889
aI4806
aI1719
aI1482
aI9114
aI2322
aI305
aI8170
aI4095
aI3626
aI4114
aI9651
aI446
aI6357
aI3342
aI40
aI8314
aI6190
aI10151
aI4766
aI7308
aI6639
aI7450
aI4344
aI9855
aI779
aI7665
aI2744
aI5483
aI1054
aI2199
aI5216
aI471
aI3961
aI5358
aI10082
aI2936
aI4865
aI5123
aI6712
aI2783
aI9746
aI4610
aI8938
aI9081
aI7551
aI10313
aI2853
aI1307
aI5695
aI2759
aI4649
aI1235
aI7138
aI1272
aI7867
aI2549
aI8688
aI10349
aI5807
aI9025
aI5431
aI3191
aI3581
aI3720
aI9559
aI825
aI1162
aI9050
aI6423
aI3706
aI4224
aI6832
aI3466
aI230
aI596
aI2132
aI1662
aI8301
aI5110
aI8109
aI2710
aI2875
aI3444
aI3065
aI3676
aI3986
aI6760
aI6893
aI5924
aI10308
aI6676
aI2193
aI4315
aI2834
aI8945
aI3029
aI7201
aI2908
aI8712
aI3776
aI3152
aI10354
aI511
aI6473
aI4433
aI3560
aI9107
aI7991
aI5214
aI3396
aI9498
aI1378
aI6670
aI8375
aI2494
aI307
aI532
aI2028
aI195
aI1373
aI753
aI6693
aI7397
aI7120
aI2027
aI838
aI10341
aI4354
aI1487
aI4666
aI5836
aI6919
aI1092
aI7134
aI4582
aI1261
aI9780
aI7845
aI5221
aI7023
aI3489
aI1439
aI7030
aI5349
aI3811
aI632
aI7425
aI214
aI3285
aI2534
aI7071
aI5475
aI4252
aI4184
aI3993
aI1622
aI2906
aI4827
aI9812
aI8120
aI3963
aI10186
aI9528
aI5409
aI7587
aI8302
aI7739
aI7047
aI1980
aI5041
aI5907
aI3543
aI10633
aI3923
aI7340
aI1286
aI2082
aI8402
aI8836
aI5434
aI4979
aI5592
aI1538
aI49
aI5229
aI7504
aI2163
aI6949
aI759
aI7954
aI1717
aI7437
aI6993
aI718
aI4119
aI3614
aI2339
aI1648
aI4084
aI2608
aI2400
aI6971
aI2679
aI6980
aI6729
aI1850
aI6008
aI5919
aI3146
aI5271
aI2145
aI844
aI8147
aI9916
aI10084
aI1288
aI4769
aI76
aI6279
aI2815
atp12
a((lp13
I9271
aI2528
aI778
aI6245
aI7643
aI9104
aI938
aI7149
aI4146
aI6206
aI2823
aI392
aI8649
aI9510
aI3959
aI441
aI3358
aI6112
aI393
aI1393
aI9844
aI1691
aI9019
aI5570
aI3171
aI5235
aI9939
aI8020
aI675
aI5514
aI2114
aI8785
aI9065
aI9494
aI5097
aI5006
aI2715
aI4145
aI6625
aI6037
aI8321
aI4790
aI8305
aI325
aI7648
aI130
aI10568
aI2032
aI1043
aI391
aI873
aI2273
aI2537
aI6664
aI4260
aI4618
aI6281
aI6215
aI5925
aI5484
aI10221
aI6139
aI2188
aI6302
aI7180
aI854
aI9291
aI10327
aI6579
aI8236
aI1006
aI3451
aI99
aI4212
aI9784
aI3804
aI6375
aI5503
aI5399
aI1999
aI2990
aI592
aI3069
aI6351
aI577
aI5371
aI2993
aI4461
aI1642
aI766
aI5593
aI7669
aI686
aI2677
aI1131
aI2441
aI7455
aI3750
aI10441
aI4422
aI5139
aI3952
aI9418
aI7176
aI2084
aI3274
aI2214
aI3039
aI8407
aI1347
aI9491
aI4983
aI7060
aI3081
aI271
aI9563
aI10634
aI1260
aI3092
aI9383
aI5169
aI6990
aI2894
aI10629
aI2958
aI7973
aI3251
aI5128
aI4899
aI2529
aI223
aI3527
aI6652
aI5783
aI8618
aI7621
aI1778
aI3800
aI5921
aI2416
aI1567
aI5987
aI5660
aI6624
aI2578
aI10312
aI10596
aI847
aI6348
aI9033
aI4437
aI8249
aI3128
aI9351
aI10062
aI10055
aI4069
aI7528
aI5237
aI852
aI326
aI4971
aI7952
aI9500
aI2196
aI2934
aI2364
aI3113
aI353
aI8787
aI7644
aI5344
aI4910
aI9138
aI4890
aI1375
aI7772
aI6015
aI7383
aI3327
aI6778
aI1722
aI359
aI8594
aI5212
aI2730
aI7175
aI6089
aI9996
aI8410
aI258
aI7159
aI3653
aI5392
aI3088
aI12
aI982
aI940
aI2675
aI102
aI1405
aI3313
aI1116
aI3398
aI8493
aI2822
aI7543
aI6307
aI3671
aI3372
aI6388
aI10499
aI9645
aI9341
aI6518
aI5084
aI3149
aI9990
aI3638
aI2587
aI6535
aI6702
aI10044
aI7969
aI7799
aI5605
aI3343
aI2467
aI4159
aI6058
aI5019
aI7817
aI823
aI9032
aI10391
aI10557
aI2282
aI10420
aI5857
aI3153
aI6612
aI7769
aI2983
aI3150
aI6298
aI5125
aI1688
aI9895
aI3867
aI2705
aI5172
aI4962
aI7263
aI840
aI3868
aI10166
aI1972
aI5627
aI2775
aI8632
aI3913
aI7853
aI3972
aI6740
aI2220
aI2229
aI9721
aI2445
aI4189
aI6263
aI6100
aI7840
aI4913
aI6427
aI3158
aI7532
aI889
aI2002
aI2632
aI5666
aI8495
aI7865
aI10434
aI5249
aI5254
aI1495
aI3878
aI1248
aI7470
aI5220
aI4668
aI5465
aI374
aI7681
aI1173
aI97
aI9374
aI6618
aI6022
aI3654
aI10480
aI1623
aI9279
aI10524
aI2458
aI9596
aI3331
aI7882
aI2589
aI7684
aI4885
aI8454
aI8635
aI5894
aI1017
aI1615
aI6254
aI708
aI9802
aI756
aI531
aI1021
aI7108
aI2380
aI6007
aI5815
aI7240
aI1163
aI8051
aI3328
aI3472
aI2562
aI1960
aI2091
aI7081
aI6283
aI10298
aI8692
aI937
aI7150
aI9575
aI6216
aI926
aI4836
aI7058
aI8929
aI9480
aI9165
aI6395
aI918
aI10297
aI2714
aI3531
aI9
aI1195
aI3474
aI2369
aI10551
aI8118
aI3931
aI6122
aI1786
aI6115
aI9437
aI6570
aI8150
aI594
aI6291
aI1976
aI5724
aI8098
aI1428
aI2696
aI6071
aI8925
aI9521
aI9856
aI7725
aI1692
aI2510
aI10593
aI68
aI5751
aI6813
aI10658
aI9465
aI9659
aI3176
aI8421
aI10375
aI6940
aI1886
aI2851
aI7941
aI6888
aI8136
aI92
aI3880
aI3453
aI9847
aI4984
aI2055
aI10329
aI3567
aI4223
aI2370
aI6430
aI4723
aI3596
aI7157
aI9760
aI5168
aI3395
aI9872
aI6851
aI1154
aI8691
aI2166
aI6013
aI10455
aI9818
aI4560
aI6513
aI3664
aI6020
aI9458
aI8084
aI3907
aI7852
aI8294
aI4561
aI879
aI8453
aI1711
aI6293
aI4853
aI10077
aI3239
aI9479
aI3860
aI2524
aI694
aI120
aI9398
aI1890
aI8753
aI658
aI10631
aI1335
aI3475
aI365
aI3697
aI10176
aI264
aI9162
aI2283
aI1767
aI5672
aI3746
aI2693
aI9792
aI10409
aI10080
aI1493
aI7277
aI3085
aI8057
aI8208
aI1938
aI10579
aI5744
aI86
aI8114
aI3808
aI8362
aI6232
aI3001
aI6731
aI6044
aI3178
aI3108
aI2020
aI1665
aI5994
aI6920
aI8387
aI251
aI9123
aI7889
aI563
aI2980
aI9716
aI7215
aI4163
aI4527
aI2259
aI1984
aI10296
aI7881
aI5280
aI3220
aI6861
aI4608
aI8887
aI10099
aI6268
aI1728
aI4468
aI8604
aI7841
aI8756
aI4164
aI3294
aI5789
aI1779
aI4805
aI4242
aI10282
aI1793
aI783
aI1941
aI8679
aI5445
aI6948
aI2080
aI2753
aI6692
aI367
aI4926
aI1570
aI525
aI737
aI10314
aI1172
aI8296
aI7711
aI4314
aI2818
aI10338
aI9188
aI3894
aI5334
aI9013
aI3436
aI3593
aI356
aI1078
aI516
aI2051
aI10096
aI9600
aI3983
aI763
aI460
aI2634
aI8480
aI9204
aI9781
aI109
aI1858
aI5124
aI10381
aI4181
aI6362
aI6854
aI7133
aI2844
aI232
aI8356
aI3196
aI9963
aI6287
aI8515
aI9558
aI9606
aI4033
aI4947
aI7800
aI620
aI2986
aI7403
aI4732
aI2697
aI5375
aI1066
aI9059
aI5026
aI3816
aI515
aI4357
aI5612
aI3865
aI2799
aI2727
aI4997
aI2345
aI10322
aI10638
aI1187
aI3611
aI2079
aI9144
aI10541
aI6501
aI881
aI4151
aI3886
aI2415
aI7677
aI1392
aI5806
aI9568
aI8845
aI10567
aI9896
aI8172
aI9387
aI8058
aI1095
aI6561
aI5703
aI6033
aI465
aI6439
aI1836
aI10657
aI7196
aI810
aI7337
aI4761
aI2881
aI5794
aI8168
aI10182
aI409
aI3710
aI7574
aI7387
aI6631
aI3996
aI4219
aI706
aI6974
aI8017
aI504
aI6569
aI5048
aI5880
aI10223
aI2217
aI6408
aI1062
aI4818
aI6092
aI2156
aI222
aI1281
aI6709
aI4232
aI7974
aI2977
aI2275
aI3159
aI4737
aI1687
aI7233
aI3203
aI4934
aI6699
aI8766
aI5837
aI166
aI4255
aI7709
aI1963
aI192
aI10547
aI4653
aI8138
aI6703
aI9126
aI8073
aI5039
aI2118
aI2285
aI2501
aI3229
aI1440
aI10586
aI3454
aI3209
aI4825
aI2139
aI395
aI882
aI3182
aI8696
aI9143
aI9738
aI7918
aI3854
aI2824
aI5608
aI1739
aI8117
aI5726
aI2574
aI342
aI5739
aI2087
aI2750
aI4891
aI5339
aI10540
aI3566
aI1147
aI4595
aI3698
aI1108
aI6904
aI9217
aI6193
aI2294
aI207
aI7465
aI2348
aI8066
aI2551
aI2852
aI4996
aI8582
aI1499
aI101
aI8268
aI3798
aI9819
aI6542
aI653
aI9932
aI9531
aI8746
aI7226
aI5470
aI9817
aI316
aI10032
aI8732
aI6577
aI1917
aI7633
aI2243
aI5262
aI557
aI10399
aI186
aI5781
aI7423
aI3941
aI8743
aI3250
aI3143
aI6900
aI2951
aI7462
aI1323
aI1035
aI199
aI10615
aI7565
aI5863
aI7377
aI1666
aI9141
aI1243
aI8741
aI6054
aI6146
aI5478
aI7702
aI2291
aI1400
aI6137
aI5893
aI2184
aI234
aI9073
aI169
aI8913
aI7306
aI9815
aI6276
aI6836
aI7704
aI4664
aI4465
aI9117
aI1275
aI10194
aI3347
aI1052
aI8840
aI9604
aI259
aI7919
aI1602
aI10108
aI1459
aI10380
aI3145
aI2721
aI7876
aI1591
aI6937
aI5736
aI5192
aI5141
aI7668
aI9173
aI2344
aI9195
aI3686
aI6140
aI878
aI9854
aI807
aI10456
aI5238
aI7558
aI3401
aI3019
aI7427
aI6130
aI1839
aI7979
aI4089
aI6914
aI5929
aI3599
aI4248
aI8473
aI8229
aI3523
aI4481
aI8401
aI8567
aI6235
aI5161
aI6623
aI8589
aI5537
aI6407
aI2716
aI6669
aI1057
aI8526
aI8789
aI4351
aI1697
aI5242
aI2450
aI591
aI2680
aI3211
aI3297
aI6484
aI650
aI3337
aI2097
aI10608
aI3017
aI4415
aI6101
aI4391
aI5634
aI1586
aI5037
aI287
aI6510
aI10124
aI6895
aI8174
aI10486
aI9419
aI8916
aI5934
aI4383
aI10530
aI13
aI2014
aI3545
aI1465
aI7314
aI7699
aI2012
aI10572
aI1315
aI9715
aI4562
aI1120
aI684
aI1729
aI4452
aI8904
aI313
aI3024
aI7638
aI9740
aI7632
aI1488
aI2689
aI5589
aI2606
aI10459
aI7895
aI3040
aI841
aI3785
aI7740
aI7999
aI2691
aI5170
aI8054
aI3882
aI5466
aI1921
aI5127
aI7439
aI366
aI7887
aI10571
aI4811
aI2310
aI4615
aI4284
aI6368
aI221
aI9876
aI624
aI4055
aI5669
aI6986
aI7860
aI2707
aI4547
aI6580
aI4634
aI3312
aI7828
aI4202
aI9325
aI10544
aI4030
aI7256
aI380
aI8891
aI4430
aI5314
aI4063
aI3094
aI1896
aI5207
aI9986
aI3261
aI6544
aI5284
aI8607
aI3405
aI9936
aI7737
aI1634
aI9318
aI8828
aI1956
aI1449
aI6918
aI3577
aI1309
aI4169
aI5082
aI439
aI7764
aI10339
aI2465
aI22
aI1124
aI9486
aI6968
aI10588
aI5121
aI651
aI4017
aI9394
aI9927
aI2737
aI6524
aI6075
aI5818
aI1519
aI9509
aI6826
aI1202
aI10412
aI9968
aI6965
aI7838
aI2837
aI2278
aI3133
aI4306
aI5002
aI6260
aI3072
aI1676
aI6824
aI8274
aI3759
aI9811
aI1708
aI4158
aI9012
aI10630
aI4469
aI8556
aI139
aI9917
aI5502
aI4250
aI6872
aI217
aI9456
aI8275
aI7871
aI8380
aI6790
aI8462
aI1192
aI2550
aI9550
aI6789
aI4417
aI1422
aI8922
aI8163
aI115
aI9572
aI371
aI4244
aI895
aI4176
aI9940
aI9734
aI9989
aI7043
aI5145
aI2065
aI4781
aI5294
aI272
aI3840
aI1100
aI3056
aI2284
aI3151
aI8028
aI2471
aI9581
aI3087
aI1523
aI8948
aI769
aI9950
aI7923
aI6489
aI8965
aI177
aI3828
aI7381
aI5038
aI9487
aI1351
aI5387
aI8204
aI8872
aI7736
aI84
aI8350
aI8730
aI9066
aI2533
aI5542
aI2172
aI8584
aI200
aI4178
aI7271
aI9975
aI4568
aI2228
aI5534
aI8257
aI5829
aI6024
aI8458
aI6667
aI9252
aI2461
aI10034
aI23
aI156
aI10110
aI2187
aI90
aI4687
aI3288
aI3160
aI128
aI4247
aI4960
aI219
aI8532
aI4850
aI6256
aI5524
aI7544
aI3103
aI853
aI6330
aI6246
aI9247
aI14
aI4745
aI6373
aI10411
aI10285
aI1380
aI211
aI6769
aI898
aI10120
aI8967
aI10592
aI1876
aI2419
aI8450
aI9027
aI8611
aI6234
aI8699
aI7067
aI7747
aI2475
aI10207
aI1837
aI7806
aI7691
aI8676
aI3426
aI5500
aI7601
aI9506
aI10556
aI1799
aI6969
aI7166
aI3476
aI4110
aI2337
aI9722
aI5887
aI4860
aI8127
aI3635
aI4472
aI7560
aI7363
aI7076
aI4599
aI9638
aI1362
aI5614
aI8744
aI8128
aI2133
aI4503
aI2244
aI8846
aI426
aI6557
aI3584
aI1612
aI10619
aI6220
aI7803
aI8452
aI6621
aI1497
aI957
aI10128
aI269
aI8343
aI7843
aI5819
aI1295
aI10227
aI7640
aI8864
aI10251
aI6530
aI8413
aI197
aI388
aI7598
aI4592
aI8311
aI7132
aI7033
aI3074
aI183
aI9433
aI5853
aI3116
aI10210
aI7549
aI5062
aI1391
aI5799
aI7679
aI6045
aI10474
aI808
aI4113
aI4506
aI5962
aI724
aI2923
aI849
aI5129
aI3793
aI5023
aI479
aI5851
aI8709
aI10284
aI1730
aI3723
aI4651
aI5995
aI1194
aI4216
aI5184
aI3319
aI8803
aI9804
aI7211
aI1128
aI3826
aI3754
aI4989
aI10645
aI5658
aI1469
aI10095
aI6172
aI3173
aI7862
aI7844
aI162
aI9427
aI7590
aI1629
aI6264
aI9850
aI4943
aI3316
aI5543
aI4722
aI8285
aI9038
aI7476
aI4991
aI857
aI1907
aI1644
aI10520
aI10093
aI4476
aI7992
aI1204
aI7267
aI10234
aI9495
aI7259
aI9702
aI8145
aI4896
aI2913
aI3058
aI10424
aI3641
aI1135
aI3360
aI1889
aI4434
aI5054
aI581
aI10400
aI4806
aI4149
aI1719
aI1482
aI9114
aI3639
aI5015
aI4039
aI8360
aI7657
aI7934
aI6512
aI2322
aI9958
aI305
aI10545
aI7178
aI8170
aI2192
aI3762
aI4963
aI1802
aI4095
aI3626
aI9540
aI2308
aI4114
aI6882
aI9206
aI6720
aI9651
aI446
aI8578
aI6289
aI6357
aI5507
aI9538
aI7758
aI3342
aI40
aI8314
aI6190
aI1630
aI5918
aI7608
aI7074
aI9891
aI10151
aI10525
aI8383
aI4833
aI3792
aI1361
aI4766
aI897
aI5554
aI5295
aI6062
aI7308
aI6317
aI3841
aI7088
aI10389
aI6366
aI4767
aI4701
aI8623
aI3554
aI10172
aI2289
aI1654
aI6639
aI2569
aI7885
aI7450
aI4344
aI5275
aI9243
aI6823
aI9855
aI6784
aI2970
aI6052
aI6369
aI6508
aI265
aI503
aI9069
aI1107
aI779
aI7661
aI3091
aI7665
aI2845
aI4744
aI5699
aI9413
aI685
aI2329
aI2744
aI5998
aI700
aI3519
aI7328
aI6719
aI1255
aI7592
aI1028
aI5300
aI7045
aI4709
aI5483
aI1054
aI2756
aI2199
aI2113
aI5216
aI1280
aI4743
aI576
aI471
aI6000
aI9902
aI7880
aI8721
aI3636
aI3961
aI5358
aI1168
aI95
aI355
aI6887
aI4441
aI3459
aI10082
aI9628
aI2936
aI3016
aI8234
aI4060
aI4865
aI5123
aI6712
aI3551
aI10462
aI2783
aI743
aI9746
aI4610
aI5808
aI4706
aI4197
aI5681
aI1995
aI8895
aI10226
aI8938
aI8561
aI9081
aI9250
aI7551
aI6655
aI4796
aI6327
aI7602
aI209
aI8349
aI10313
aI1803
aI2853
aI1390
aI9386
aI1307
aI7508
aI79
aI5825
aI1374
aI7054
aI4442
aI1211
aI831
aI2093
aI5695
aI2759
aI6838
aI6124
aI1735
aI9825
aI4649
aI1235
aI7138
aI10414
aI8273
aI6840
aI1272
aI2298
aI8471
aI7615
aI1085
aI9359
aI7867
aI5493
aI2952
aI6237
aI2046
aI5587
aI4028
aI5847
aI2549
aI3876
aI8688
aI8126
aI9078
aI1252
aI9529
aI10349
aI9779
aI5807
aI9025
aI3796
aI3471
aI10232
aI5333
aI4317
aI5431
aI10330
aI8801
aI5183
aI2726
aI10642
aI487
aI4581
aI9829
aI8838
aI1230
aI3191
aI2453
aI5233
aI3581
aI4204
aI3720
aI9559
aI825
aI4945
aI5854
aI2017
aI1162
aI9050
aI2611
aI6423
aI7910
aI2540
aI3706
aI10243
aI7216
aI4224
aI315
aI6832
aI7712
aI4861
aI7594
aI5582
aI7053
aI2095
aI9747
aI2800
aI3466
aI4695
aI3900
aI8156
aI1023
aI5328
aI5719
aI4335
aI202
aI598
aI656
aI3465
aI2740
aI2424
aI8322
aI9269
aI230
aI5598
aI596
aI7791
aI2132
aI5951
aI7566
aI1662
aI8301
aI5110
aI4677
aI2390
aI8109
aI4889
aI7358
aI2710
aI2875
aI85
aI3444
aI3065
aI1121
aI3676
aI3986
aI6987
aI925
aI4035
aI3613
aI6760
aI8943
aI1931
aI2771
aI2353
aI6893
aI5924
aI6688
aI489
aI10308
aI3763
aI5828
aI6676
aI7318
aI7497
aI9547
aI9768
aI2193
aI361
aI9443
aI8686
aI5425
aI5497
aI4315
aI566
aI6877
aI2834
aI2241
aI9993
aI981
aI8246
aI4828
aI1193
aI8945
aI451
aI4486
aI3029
aI3430
aI7201
aI1585
aI549
aI2908
aI3326
aI8712
aI10323
aI739
aI8329
aI2412
aI5620
aI3776
aI6313
aI6711
aI8373
aI10001
aI3152
aI10354
aI511
aI8486
aI9758
aI10083
aI751
aI5583
aI10650
aI9576
aI154
aI1558
aI9139
aI3899
aI6708
aI6473
aI6261
aI4859
aI8987
aI7796
aI4892
aI9275
aI9887
aI6743
aI7585
aI5976
aI7823
aI4433
aI9176
aI5189
aI3560
aI1884
aI2305
aI205
aI9985
aI9107
aI7991
aI4353
aI6178
aI4777
aI725
aI5214
aI4893
aI3396
aI9498
aI9864
aI1378
aI3167
aI6670
aI8375
aI2494
aI307
aI7013
aI532
aI5748
aI389
aI1517
aI27
aI2028
aI9017
aI1445
aI1914
aI195
aI3093
aI5436
aI5450
aI1373
aI2303
aI753
aI4286
aI1679
aI6693
aI1835
aI1579
aI402
aI7397
aI2702
aI10491
aI2186
aI4170
aI5684
aI6187
aI4279
aI7812
aI10493
aI8048
aI5047
aI8698
aI6842
aI4831
aI9209
aI6106
aI8909
aI2478
aI8879
aI7120
aI4236
aI274
aI2027
aI2068
aI3579
aI5429
aI9207
aI838
aI7438
aI8197
aI526
aI1518
aI7441
aI9336
aI10341
aI7670
aI4354
aI8560
aI1487
aI6205
aI4666
aI5836
aI6018
aI5635
aI8437
aI7109
aI4318
aI6750
aI4289
aI5202
aI434
aI9435
aI6919
aI3824
aI10309
aI922
aI1092
aI9300
aI8999
aI5031
aI7134
aI4582
aI7755
aI1454
aI6890
aI9245
aI1261
aI7477
aI4593
aI9349
aI2103
aI246
aI9780
aI3357
aI8055
aI7845
aI824
aI4231
aI5885
aI1284
aI5221
aI3289
aI2629
aI2942
aI7539
aI5140
aI193
aI5908
aI9449
aI5889
aI3365
aI5668
aI142
aI8116
aI9460
aI5971
aI7040
aI7023
aI10271
aI1318
aI6480
aI7144
aI10303
aI3489
aI3788
aI8764
aI6757
aI2907
aI1439
aI7030
aI10209
aI5349
aI3811
aI7382
aI2198
aI5420
aI1861
aI1200
aI149
aI632
aI7425
aI214
aI4548
aI955
aI3285
aI4162
aI2534
aI247
aI8954
aI7368
aI676
aI8738
aI7071
aI3662
aI1838
aI5521
aI1759
aI8181
aI832
aI5475
aI8432
aI4252
aI7191
aI7025
aI10589
aI9682
aI4184
aI3810
aI2431
aI3993
aI4773
aI1622
aI2906
aI3174
aI9417
aI9557
aI6564
aI3518
aI4827
aI1765
aI1961
aI9812
aI7471
aI7582
aI8097
aI7472
aI9551
aI8120
aI5277
aI1322
aI2857
aI1418
aI6212
aI4637
aI7244
aI4012
aI10386
aI3276
aI4459
aI1111
aI3963
aI7131
aI3561
aI10186
aI1606
aI1791
aI4980
aI3231
aI2437
aI3441
aI8565
aI2279
aI9528
aI5409
aI8036
aI2379
aI7587
aI8302
aI7739
aI7047
aI1980
aI5041
aI5907
aI8031
aI5812
aI3543
aI8852
aI10438
aI2674
aI5883
aI3607
aI7771
aI7282
aI773
aI6211
aI9907
aI9332
aI5473
aI7813
aI10633
aI8670
aI3923
aI114
aI7340
aI1286
aI888
aI2082
aI9945
aI8402
aI8836
aI8335
aI10561
aI2315
aI292
aI5434
aI5355
aI4979
aI3131
aI7050
aI7002
aI5592
aI5760
aI1538
aI49
aI9221
aI407
aI1074
aI10320
aI3275
aI5229
aI6862
aI1148
aI10217
aI1712
aI2119
aI1158
aI10580
aI7504
aI2163
aI8714
aI7089
aI9698
aI688
aI5735
aI9951
aI10485
aI8103
aI6949
aI8992
aI7394
aI759
aI7954
aI8125
aI1717
aI7437
aI6993
aI1668
aI6090
aI5565
aI8997
aI135
aI1994
aI10094
aI1199
aI10477
aI5513
aI718
aI4305
aI2912
aI9397
aI2071
aI734
aI6297
aI2530
aI1854
aI4995
aI4642
aI4119
aI3614
aI1106
aI6841
aI2339
aI7409
aI1648
aI4084
aI2608
aI1073
aI2646
aI1432
aI9754
aI2400
aI6221
aI8337
aI6971
aI4193
aI6144
aI2679
aI5224
aI6980
aI4108
aI6729
aI2554
aI81
aI1850
aI10146
aI8660
aI6985
aI6077
aI3646
aI8106
aI9109
aI5779
aI6008
aI2266
aI5919
aI10562
aI9284
aI3146
aI5271
aI2024
aI7252
aI8554
aI7564
aI2191
aI7723
aI894
aI9863
aI2585
aI10559
aI2932
aI4961
aI2145
aI1240
aI3154
aI6909
aI844
aI8147
aI436
aI10264
aI7428
aI8334
aI2299
aI5952
aI1743
aI3905
aI9916
aI2848
aI10084
aI868
aI1491
aI1288
aI8498
aI5749
aI4769
aI4398
aI5557
aI5980
aI7442
aI76
aI2256
aI10617
aI3823
aI7496
aI6279
aI3721
aI2815
aI2342
a(lp14
I155
aI7354
aI9110
aI7268
aI913
aI7825
aI8217
aI4916
aI7290
aI8658
aI26
aI7616
aI2690
aI690
aI3232
aI2395
aI10496
aI9566
aI8075
aI6059
aI1928
aI4632
aI932
aI1051
aI9105
aI1271
aI6531
aI8300
aI5842
aI4049
aI4160
aI7847
aI3980
aI4753
aI8564
aI6846
aI8549
aI2653
aI1270
aI4376
aI10507
aI248
aI7578
aI6956
aI3667
aI8372
aI10252
aI5316
aI5989
aI588
aI5040
aI5800
aI1684
aI10135
aI835
aI4556
aI992
aI7100
aI1458
aI10518
aI2141
aI9261
aI10
aI6874
aI9723
aI6457
aI5209
aI5580
aI9256
aI7141
aI6585
aI9969
aI6928
aI3861
aI7631
aI919
aI2864
aI8742
aI6818
aI3057
aI1707
aI4467
aI8897
aI3946
aI7562
aI8363
aI3784
aI8318
aI7326
aI1611
aI9630
aI8207
aI5953
aI8370
aI4661
aI9490
aI5053
aI8308
aI3018
aI8566
aI10288
aI4266
aI1667
aI2281
aI8423
aI3699
aI689
aI8821
aI670
aI3469
aI7404
aI7373
aI3537
aI10387
aI4927
aI10031
aI3912
aI220
aI8693
aI9693
aI492
aI3729
aI6717
aI7225
aI522
aI9727
aI2974
aI7943
aI8072
aI9826
aI10195
aI3790
aI8819
aI4832
aI3346
aI8412
aI5810
aI9048
aI2147
aI5090
aI2831
aI2613
aI3627
aI3249
aI1968
aI2668
aI10610
aI33
aI4368
aI5366
aI7697
aI8361
aI4364
aI907
aI3623
aI1716
aI8435
aI7981
aI6432
aI9457
aI8425
aI9974
aI8392
aI8310
aI1637
aI1724
aI8636
aI9231
aI2274
aI5711
aI94
aI4333
aI6374
aI4648
aI3990
aI5253
aI10102
aI5444
aI2075
aI1709
aI6931
aI6575
aI5356
aI972
aI3340
aI4307
aI9055
aI8910
aI1236
aI568
aI8790
aI1170
aI607
aI10436
aI4298
aI3420
aI3726
aI6143
aI5897
aI8013
aI4559
aI5661
aI9154
aI8225
aI9797
aI2121
aI2206
aI5160
aI1201
aI7667
aI5876
aI2140
aI9867
aI5279
aI1703
aI7759
aI2126
aI7962
aI9774
aI3568
aI7418
aI9133
aI569
aI6151
aI6160
aI4620
aI10490
aI9127
aI5886
aI4834
aI2007
aI4338
aI8442
aI239
aI7636
aI8949
aI10262
aI1843
aI9102
aI3027
aI6922
aI9973
aI3709
aI9282
aI9627
aI4658
aI4066
aI6443
aI3734
aI8768
aI518
aI10337
aI6515
aI4751
aI8069
aI9136
aI5522
aI7083
aI8881
aI2261
aI9063
aI1231
aI5104
aI10249
aI1247
aI2695
aI8543
aI736
aI5717
aI4365
aI6082
aI6132
aI3558
aI7794
aI5272
aI7231
aI7313
aI6093
aI10468
aI2665
aI10451
aI6627
aI6697
aI2767
aI276
aI8420
aI3708
aI5154
aI2249
aI4083
aI1026
aI9149
aI10471
aI8903
aI8798
aI10647
aI6171
aI9952
aI10425
aI9342
aI6025
aI1319
aI4076
aI3966
aI7386
aI6715
aI6878
aI8865
aI3987
aI6006
aI5290
aI2018
aI9641
aI8937
aI9537
aI5533
aI5435
aI3033
aI7745
aI2434
aI1410
aI2381
aI4072
aI8152
aI2572
aI671
aI6019
aI10550
aI8414
aI792
aI2523
aI3286
aI2076
aI9361
aI5043
aI5376
aI3404
aI9764
aI8993
aI4855
aI6995
aI3464
aI5306
aI4115
aI579
aI121
aI7730
aI7738
aI1068
aI1559
aI6421
aI5016
aI10278
aI4280
aI4004
aI5025
aI1239
aI5056
aI7869
aI6856
aI9503
aI346
aI6155
aI7567
aI2179
aI723
aI5405
aI2463
aI9064
aI2940
aI9842
aI6004
aI82
aI3668
aI1829
aI5264
aI7202
aI3078
aI8089
aI5590
aI5985
aI3273
aI5055
aI1510
aI6936
aI7026
aI8108
aI9772
aI2678
aI1920
aI1789
aI7978
aI7456
aI855
aI8562
aI2827
aI6417
aI6728
aI2910
aI5174
aI8029
aI4087
aI3956
aI9515
aI10020
aI5900
aI10047
aI8455
aI6680
aI9150
aI5171
aI8395
aI2568
aI9158
aI8735
aI2403
aI1880
aI9556
aI934
aI9420
aI2808
aI8734
aI3830
aI2367
aI9590
aI3896
aI1525
aI6855
aI2624
aI5910
aI425
aI6930
aI4303
aI5081
aI2567
aI8547
aI6556
aI1134
aI2169
aI1583
aI4403
aI10501
aI5802
aI2427
aI6382
aI8411
aI556
aI10614
aI6619
aI7330
aI8143
aI6595
aI4920
aI4936
aI643
aI7344
aI1355
aI1481
aI4308
aI10017
aI947
aI2021
aI6060
aI6555
aI4420
aI1114
aI3943
aI9181
aI4261
aI210
aI10193
aI2954
aI4042
aI8403
aI10439
aI3756
aI1584
aI4142
aI10315
aI9086
aI8132
aI312
aI6506
aI5312
aI1314
aI73
aI9022
aI8642
aI5552
aI6593
aI10061
aI667
aI6640
aI9463
aI1494
aI4994
aI9908
aI9769
aI1689
aI7034
aI6539
aI10267
aI9598
aI1756
aI2766
aI7894
aI6420
aI2505
aI5690
aI9212
aI6290
aI5844
aI9785
aI430
aI8926
aI10335
aI547
aI2009
aI5089
aI4050
aI185
aI5737
aI776
aI5255
aI2043
aI6672
aI1721
aI8299
aI8266
aI2662
aI2189
aI1647
aI9554
atp15
a(lp16
I9585
aI9476
aI10587
aI7248
aI9380
aI386
aI5970
aI3122
aI8939
aI2162
aI704
aI5324
aI2326
aI3533
aI9007
aI4316
aI4348
aI5769
aI9036
aI9061
aI4031
aI10428
aI104
aI448
aI10448
aI5471
aI9839
aI7148
aI4977
aI9543
aI5035
aI10144
aI7914
aI1549
aI8112
aI4361
aI5954
aI5102
aI1180
aI4937
aI6454
aI1091
aI354
aI1870
aI6741
aI3999
aI9385
aI9642
aI6554
aI1342
aI2607
aI10641
aI2388
aI1302
aI5850
aI10595
aI2968
aI788
aI6166
aI2423
aI3062
aI3282
aI163
aI3241
aI9869
aI10294
aI4914
aI256
aI10040
aI2378
aI6802
aI3536
aI5384
aI7985
aI7031
aI122
aI9846
aI6387
aI10627
aI1590
aI1852
aI189
aI887
aI9871
aI3164
aI8219
aI7426
aI7078
aI9959
aI2959
aI5947
aI7028
aI9242
aI157
aI1726
aI7909
aI10244
aI7581
aI9125
aI5977
aI9239
aI7718
aI3852
aI7329
aI9265
aI3939
aI10132
aI7004
aI5928
aI2221
aI243
aI2457
aI9076
aI10377
aI7752
aI5855
aI6509
aI2154
aI2616
aI7525
aI8039
aI2131
aI5072
aI5958
aI475
aI2672
aI5603
aI3371
aI10156
aI767
aI2821
aI6163
aI8805
aI4297
aI6923
aI9444
aI5370
aI3648
aI4275
aI8324
aI4750
aI1102
aI1089
aI10646
aI2246
aI5443
aI5969
aI4183
aI215
aI4662
aI5329
aI3350
aI5156
aI6250
aI7445
aI6906
aI2349
aI7115
aI10661
aI9714
aI2874
aI7467
aI5555
aI7440
aI2089
aI7146
aI4172
aI1626
aI1311
aI10079
aI58
aI10003
aI4485
aI5636
aI858
aI6647
aI173
aI7197
aI2399
aI8885
aI190
aI452
aI5454
aI7624
aI4046
aI9650
aI9227
aI5343
aI1150
aI8869
aI1936
aI9517
aI74
aI1805
aI2004
aI9453
aI7007
aI7222
aI2969
aI1563
aI8888
aI509
aI6403
aI382
aI7443
aI6496
aI6153
aI1327
aI6154
aI3675
aI2251
aI3301
aI8107
aI7936
aI6021
aI6807
aI2358
aI9152
aI3351
aI6390
aI648
aI6588
aI1801
aI213
aI8715
aI8081
aI3495
aI378
aI908
aI5702
aI4734
aI575
aI4522
aI8320
aI6896
aI5267
aI774
aI2100
aI56
aI8609
aI10333
aI2015
aI9470
aI802
aI148
aI1222
aI2752
aI9148
aI4878
aI567
aI5096
aI8815
aI985
aI8573
aI5960
aI4982
aI7073
aI8182
aI2787
aI5611
aI8227
aI6422
aI6425
aI10117
aI6998
aI1232
aI6689
aI906
aI6295
aI1744
aI5199
aI9461
aI7292
aI3468
aI2681
aI2053
aI7897
aI1326
aI3068
aI5347
aI8139
aI2718
aI7127
aI3712
aI6462
aI123
aI1477
aI4799
aI1673
aI4439
aI5576
aI9587
aI2422
aI8754
aI9868
aI5688
aI9355
aI6926
aI768
aI2404
aI8038
aI413
aI8347
aI7388
aI2371
aI9160
aI2122
aI7652
aI10384
aI10527
aI4886
aI3799
aI5903
aI2406
aI6370
aI8504
aI2394
aI7757
aI8121
aI7953
aI5448
aI1548
aI1869
aI6485
aI5363
aI2659
aI4953
aI7694
aI8278
aI3406
aI4987
aI5682
aI3820
aI10521
aI4067
aI3329
aI1003
aI6197
aI7460
aI9660
aI7140
aI3375
aI990
aI8352
aI1385
aI1664
aI2901
aI10376
aI8059
aI4489
aI6385
aI7355
aI6952
aI7596
aI8528
aI9208
aI10513
aI9683
aI7482
aI2083
aI709
aI5961
aI4196
aI6265
aI1841
aI9253
aI4300
aI249
aI5372
aI431
aI1408
aI2155
aI4374
aI4763
aI3097
aI2368
aI3833
aI8962
aI9965
aI2883
aI5572
aI584
aI7983
aI9254
aI3872
aI1546
aI920
aI9964
aI1714
aI6345
aI793
aI9962
aI958
aI5596
aI5131
aI2780
aI839
aI5738
aI8507
aI4774
aI3508
aI3447
aI7348
aI9555
aI6800
aI8516
aI2049
aI4716
aI555
aI3937
aI1540
aI462
aI8985
aI8972
aI7204
aI10431
aI2469
aI9750
aI6316
aI7410
aI10612
aI4037
aI7009
aI5615
aI8644
aI9215
aI4529
aI5536
aI7911
aI1019
aI822
aI2600
aI9499
aI4304
aI2626
aI6255
aI6497
aI7915
aI5246
aI3047
aI4331
aI1701
aI3849
aI6718
aI2892
aI5638
aI9821
aI9074
aI10481
aI3310
aI716
aI8448
aI10169
aI1359
aI5350
aI1633
aI2621
aI4234
aI10145
aI10623
aI7130
aI1045
aI5613
aI8213
aI3499
aI3716
aI8980
aI5361
aI2580
aI7324
aI3984
aI10107
aI5978
aI933
aI4586
aI3908
aI4470
aI10089
aI2618
aI10348
aI3314
aI7958
aI8519
aI3539
aI6047
aI6294
aI10056
aI9210
aI2174
aI843
aI4389
aI7512
aI4130
aI9382
aI10143
aI7498
aI6475
aI10511
aI467
aI9980
aI5896
aI7188
aI7064
aI5950
aI4588
aI8500
aI7099
aI4277
aI9040
aI2462
aI9475
aI2376
aI4140
aI5846
aI6446
aI1969
aI1112
aI1942
aI10179
aI6674
aI2804
aI818
aI2622
aI7305
aI3731
aI6795
aI5838
aI3051
aI3725
aI8251
aI7811
aI7695
aI1833
aI2460
aI4341
aI8346
aI6562
aI3332
aI3124
aI6723
aI8736
aI6341
aI280
aI3278
aI3730
aI3795
aI9396
aI3680
aI267
aI168
aI585
aI8397
aI4487
aI5490
aI8580
aI661
aI297
aI3481
aI8353
aI5852
aI96
aI8957
aI10640
aI3136
aI7154
aI4520
aI9713
aI2657
aI6243
aI5932
aI8033
aI5923
aI5004
aI2247
aI3556
aI87
aI9930
aI8769
aI8354
aI10275
aI10396
aI6967
aI1197
aI3421
aI1178
aI10526
aI2325
aI2236
aI8231
aI1800
aI10007
aI765
aI3363
aI9257
aI7260
aI6259
aI1970
aI2810
aI9995
aI7591
aI4793
aI188
aI4966
aI2492
aI275
aI50
aI6470
aI5714
aI5094
aI3348
aI7236
aI978
aI4507
aI216
aI3598
aI6571
aI4895
aI10019
aI10336
aI4381
aI9678
aI883
aI10606
aI6897
aI2920
aI490
aI9619
aI5873
aI7342
aI8460
aI4591
aI4843
aI7408
aI939
aI10500
aI3299
aI1250
aI1826
aI5388
aI3485
aI8606
aI2286
aI6285
aI7059
aI5477
aI5360
aI8928
aI8481
aI8940
aI6046
aI8409
aI9663
aI1978
aI10201
aI5320
aI8918
aI4134
aI921
aI1312
aI4803
aI4032
aI4684
aI255
aI8140
aI7357
aI5782
aI7181
aI9703
aI7809
aI5142
aI9681
aI4312
aI6488
aI47
aI7370
aI6040
aI9199
aI6042
aI5505
aI6871
aI10266
aI2006
aI8148
aI1406
aI582
aI971
aI8551
aI6636
aI4972
aI4845
aI4948
aI9639
aI8332
aI4109
aI7570
aI8637
aI9222
aI7726
aI1971
aI589
aI572
aI4569
aI4604
aI4867
aI10416
aI7503
aI5330
aI8277
aI4258
aI44
aI6150
aI866
aI5899
aI196
aI6725
aI5585
aI9518
aI5424
aI9273
aI3559
aI7295
aI7000
aI93
aI1680
aI9733
aI5912
aI4990
aI4281
aI3521
aI2998
aI3075
aI1749
aI9946
aI1443
aI75
aI1436
aI6498
aI8935
aI3403
aI7874
aI2802
aI4086
aI9483
aI10277
aI1055
aI9954
aI5346
aI2724
aI2067
aI5078
aI318
aI3318
aI1774
aI64
aI1944
aI2077
aI977
aI8368
aI2947
aI9979
aI167
aI110
aI3061
aI6654
aI8810
aI4246
aI2525
aI10465
aI6084
aI3262
aI10597
aI2350
aI30
aI673
aI4199
aI7778
aI968
aI4418
aI6610
aI1333
aI9151
aI7916
aI6687
aI10390
aI2666
aI3117
aI7680
aI1948
aI2729
aI8419
aI6982
aI5501
aI7742
aI10256
aI7982
aI1625
aI3967
aI8959
aI4458
aI4020
aI10189
aI5190
aI2042
aI9923
aI8422
aI3449
aI2484
aI8099
aI2506
aI953
aI7005
aI5397
aI145
aI7304
aI6223
aI8576
aI1685
aI6168
aI5451
aI4946
aI6214
aI7107
aI9798
aI327
aI3053
aI4517
aI9340
aI10523
aI7320
aI969
aI1000
aI10457
aI6772
aI6927
aI8628
aI9124
aI9175
aI2254
aI302
aI1555
aI7888
aI4320
aI7230
aI1090
aI8427
aI6643
aI10454
aI6257
aI2056
aI1118
aI2088
aI2232
aI1464
aI9478
aI1483
aI8911
aI3522
aI2365
aI4919
aI7486
aI6311
aI10512
aI8952
aI6085
aI5407
aI9052
aI3534
aI6377
aI7334
aI5646
aI8113
aI2175
aI4563
aI1014
aI1460
aI3843
aI3283
aI6120
aI1360
aI5506
aI2048
aI2988
aI1037
aI7690
aI8076
aI1564
aI1905
aI9892
aI3254
aI1415
aI6002
aI8571
aI5223
aI6716
aI6127
aI560
aI8544
aI1181
aI8044
aI6545
aI9644
aI545
aI8586
aI141
aI7223
aI8248
aI2215
aI9866
aI6814
aI2112
aI2124
aI1263
aI9011
aI5895
aI9375
aI533
aI5321
aI6507
aI5060
aI2491
aI984
aI2720
aI7784
aI10109
aI3095
aI8956
aI4940
aI9732
aI7506
aI2535
aI2768
aI8160
aI3410
aI3814
aI1678
aI2884
aI8841
aI2601
aI10660
aI3127
aI7630
aI8001
aI63
aI6520
aI4407
aI604
aI3383
aI2841
aI8615
aI414
aI2709
aI1888
aI2120
aI678
aI8765
aI1819
aI2194
aI5640
aI6162
aI1070
aI8438
aI9582
aI1940
aI9880
aI5327
aI8737
aI6433
aI10123
aI8629
aI6786
aI6848
aI1293
aI941
aI6682
aI6783
aI3112
aI375
aI6976
aI252
aI5879
aI5771
aI3778
aI5539
aI4492
aI2374
aI3265
aI7542
aI4036
aI5948
aI10237
aI3976
aI5381
aI6145
aI6179
aI9615
aI8595
aI3493
aI10164
aI2795
aI3306
aI3201
aI6129
aI3631
aI5441
aI5045
aI3643
aI2013
aI3767
aI4352
aI5949
aI1746
aI9115
aI6863
aI2517
aI8262
aI5351
aI8449
aI2138
aI6582
aI3400
aI10276
aI2483
aI103
aI3195
aI4337
aI1903
aI6164
aI51
aI5415
aI8037
aI3735
aI8280
aI8599
aI3532
aI1636
aI8341
aI5112
aI1020
aI10101
aI7325
aI10024
aI1992
aI5071
aI3977
aI4835
aI7907
aI6868
aI4795
aI1983
aI7335
aI8651
aI3684
aI1490
aI6332
aI2045
aI6116
aI4330
aI8157
aI850
aI3813
aI3921
aI3308
aI4992
aI3161
aI967
aI4106
aI1950
aI341
aI7084
aI1788
aI6628
aI9593
aI4756
aI10628
aI2781
aI796
aI8218
aI4342
aI3002
aI3101
aI8124
aI4022
aI2267
aI9736
aI1101
aI1737
aI1324
aI5256
aI7170
aI4616
aI4583
aI6189
aI7767
aI551
aI5287
aI1421
aI1834
aI1303
aI3629
aI8976
aI3869
aI5535
aI5293
aI5186
aI6983
aI7763
aI9343
aI1424
aI2896
aI2372
aI1434
aI1063
aI710
aI9742
aI10036
aI9180
aI2836
aI1915
aI6738
aI1782
aI10392
aI3914
aI8860
aI1040
aI5058
aI7311
aI1745
aI6821
aI3130
aI8510
aI8800
aI8659
aI5935
aI2893
aI4510
aI5245
aI2409
aI634
aI1253
aI6486
aI3612
aI3587
aI3397
aI3589
aI7819
aI5926
aI8082
aI9612
aI4332
aI3243
aI4699
aI6880
aI7309
aI5266
aI8000
aI5689
aI10357
aI9373
aI254
aI7312
aI6336
aI2401
aI4554
aI3063
aI7810
aI8115
aI3529
aI4541
aI7984
aI8364
aI3910
aI3893
aI9122
aI3390
aI6514
aI4454
aI6364
aI612
aI8162
aI5421
aI373
aI8807
aI2202
aI8070
aI2991
aI9667
aI5788
aI10558
aI8151
aI1973
aI3213
aI4209
aI8700
aI7672
aI5109
aI8187
aI960
aI134
aI3815
aI6409
aI1798
aI5157
aI7431
aI1346
aI2610
aI9972
aI7597
aI2984
aI2320
aI2417
aI2436
aI416
aI7980
aI3043
aI1651
aI4715
aI8662
aI10442
aI7086
aI10045
aI5453
aI8811
aI2879
aI5937
aI5243
aI1246
aI273
aI8671
aI5177
aI6809
aI7213
aI10656
aI5839
aI7932
aI8621
aI5898
aI3855
aI5457
aI9813
aI9328
aI770
aI6274
aI1554
aI9810
aI682
aI3325
aI4082
aI1811
aI2008
aI2104
aI4768
aI9752
aI9147
aI8858
aI8436
aI5993
aI2636
aI9832
aI7798
aI5742
aI8159
aI5772
aI4719
aI7229
aI8689
aI7376
aI6180
aI1330
aI10378
aI7849
aI1872
aI7807
aI4785
aI4650
aI6359
aI6829
aI4157
aI8271
aI10635
aI6972
aI8875
aI9166
aI91
aI2360
aI7537
aI3883
aI2302
aI5226
aI10078
aI3456
aI5709
aI8459
aI6267
aI10464
aI5986
aI10059
aI3742
aI2185
aI1898
aI8485
aI3714
aI1176
aI443
aI3497
aI7152
aI5021
aI7674
aI4207
aI4432
aI2010
aI6844
aI4251
aI1259
aI8088
aI3797
aI521
aI10345
aI4820
aI4367
aI4613
aI1489
aI5545
aI7234
aI5804
aI3903
aI9251
aI3010
aI406
aI10163
aI2763
aI9331
aI5917
aI9567
aI3125
aI4208
aI449
aI4925
aI1661
aI6889
aI3266
aI1437
aI2559
aI5325
aI2408
aI10257
aI9090
aI10637
aI9118
aI7407
aI4579
aI9776
aI3751
aI8164
aI4220
aI600
aI7689
aI457
aI7756
aI1079
aI1856
aI7347
aI9530
aI10510
aI564
aI9991
aI10413
aI9448
aI129
aI5541
aI5438
aI9524
aI5706
aI4262
aI7417
aI2640
aI7933
aI1159
aI7822
aI2631
aI10229
aI4784
aI2792
aI980
aI5740
aI7011
aI1165
aI7151
aI2712
aI10173
aI7957
aI9424
aI456
aI4041
aI2579
aI4329
aI4065
aI7048
aI2036
aI2542
aI534
aI801
aI270
aI7049
aI4071
aI1810
aI1140
aI5218
aI4098
aI3490
aI331
aI7072
aI9759
aI4257
aI4635
aI7884
aI4969
aI9200
aI6721
aI2182
aI8833
aI7125
aI5068
aI1262
aI10300
aI1296
aI4530
aI9757
aI8095
aI4129
aI2500
aI8474
aI4436
aI3179
aI8490
aI10053
aI7538
aI1013
aI7595
aI5452
aI6812
aI7683
aI4970
aI6529
aI6766
aI3175
aI7625
aI7018
aI1927
aI3524
aI3050
aI3414
aI119
aI5878
aI6447
aI6188
aI7279
aI5529
aI4633
aI10067
aI4495
aI9272
aI9366
aI6999
aI8724
aI10565
aI9925
aI4245
aI494
aI10283
aI1795
aI3542
aI6451
aI9807
aI10002
aI1031
aI6465
aI10054
aI3658
aI1669
aI3805
aI2570
aI7826
aI3819
aI3992
aI800
aI1251
aI9679
aI9516
aI974
aI7147
aI2773
aI2694
aI7993
aI6817
aI8405
aI5298
aI10014
aI1474
aI3255
aI8298
aI9635
aI3775
aI1329
aI9771
aI7061
aI7419
aI8388
aI9943
aI10011
aI1419
aI2876
aI3048
aI9613
aI4976
aI1161
aI5659
aI3021
aI9190
aI2237
aI6202
aI3948
aI10263
aI1690
aI2208
aI1030
aI10364
aI2591
aI5046
aI7485
aI8901
aI10643
aI4460
aI1401
aI7563
aI4901
aI7158
aI3034
aI3197
aI9677
aI8267
aI5492
aI483
aI8024
aI6602
aI9901
aI1294
aI3693
aI4000
aI7859
aI6051
aI2473
aI5680
aI4104
aI1532
aI2785
aI3857
aI1344
aI7708
aI3236
aI856
aI8933
aI9168
aI6074
aI5817
aI3105
aI4903
aI2546
aI7627
aI3949
aI2109
aI4728
aI5531
aI860
aI9984
aI606
aI3252
aI9259
aI1991
aI9835
aI3511
aI3703
aI9595
aI9696
aI507
aI3470
aI1448
aI2820
aI7302
aI9861
aI7434
aI8381
aI8284
aI4714
aI4965
aI4691
aI3333
aI1859
aI1081
aI10356
aI4416
aI609
aI10408
aI8944
aI8293
aI3740
aI6537
aI3906
aI7790
aI4233
aI10539
aI2556
aI10370
aI7199
aI5396
aI4748
aI8492
aI7333
aI3960
aI1389
aI9070
aI713
aI9236
aI10240
aI3839
aI9246
aI10121
aI3272
aI3419
aI4647
aI8986
aI3184
aI9280
aI7575
aI4148
aI1598
aI3079
aI6396
aI2301
aI2137
aI2125
aI9352
aI2688
aI1277
aI10591
aI7177
aI3565
aI513
aI1987
aI419
aI10394
aI7380
aI9008
aI9345
aI5418
aI5745
aI2949
aI10134
aI8723
aI3801
aI7622
aI8149
aI6962
aI754
aI10038
aI9588
aI5768
aI4770
aI7395
aI8456
aI7283
aI8468
aI7124
aI4525
aI717
aI6481
aI5824
aI6658
aI4837
aI2761
aI10659
aI5288
aI4755
aI6167
aI8497
aI3859
aI10063
aI5677
aI9401
aI3487
aI7118
aI927
aI5983
aI6435
aI8465
aI9546
aI6735
aI8494
aI5946
aI1475
aI5999
aI6849
aI317
aI5556
aI10178
aI385
aI4747
aI476
aI5623
aI3366
aI5767
aI9822
aI4359
aI10197
aI9364
aI2396
aI4493
aI9058
aI2625
aI8871
aI7469
aI2566
aI8813
aI8096
aI10621
aI5203
aI4567
aI1038
aI1331
aI8131
aI4384
aI6966
aI1594
aI2081
aI3169
aI2204
aI6240
aI1196
aI8707
aI7349
aI6860
aI3871
aI7444
aI8812
aI1844
aI1925
aI6383
aI2496
aI8429
aI2363
aI1423
aI9970
aI1863
aI1256
aI7673
aI2170
aI4227
aI833
aI5722
aI1160
aI6681
aI3817
aI10085
aI9929
aI6111
aI5108
aI2971
aI830
aI8327
aI6367
aI9119
aI245
aI8896
aI3287
aI4259
aI3621
aI4957
aI8996
aI1266
aI10598
aI7122
aI5359
aI9837
aI5784
aI9824
aI4221
aI3535
aI1755
aI4863
aI10118
aI3640
aI464
aI2862
aI288
aI8592
aI4523
aI10168
aI1988
aI4386
aI2764
aI9185
aI2248
aI8577
aI5578
aI9082
aI7126
aI6104
aI1663
aI2447
aI5820
aI1397
aI8727
aI5430
aI6679
aI10086
aI659
aI7121
aI1874
aI6353
aI5975
aI2809
aI7773
aI8638
aI8796
aI5132
aI1568
aI8612
aI1705
aI527
aI5014
aI3183
aI9583
aI328
aI6505
aI910
aI284
aI7651
aI7917
aI9885
aI8094
aI8272
aI4683
aI7390
aI8506
aI6380
aI7931
aI3247
aI4918
aI4185
aI1543
aI1076
aI1514
aI5822
aI10000
aI7189
aI936
aI8357
aI5066
aI3772
aI7573
aI4729
aI2522
aI5882
aI6753
aI1923
aI4431
aI5302
aI1420
aI10268
aI5618
aI4823
aI4044
aI711
aI1213
aI8900
aI8389
aI3669
aI5479
aI5916
aI7848
aI1088
aI1542
aI1830
aI1426
aI370
aI6978
aI10025
aI7098
aI4621
aI3015
aI6196
aI7550
aI729
aI10575
aI3692
aI2741
aI762
aI8203
aI5455
aI9369
aI6393
aI4572
aI1136
aI10299
aI7346
aI666
aI7481
aI6376
aI4542
aI8447
aI7913
aI4453
aI9718
aI797
aI5193
aI5446
aI1553
aI4710
aI227
aI1787
aI7851
aI352
aI4213
aI5905
aI3546
aI2926
aI9408
aI8647
aI6763
aI2386
aI147
aI3610
aI4128
aI4511
aI1578
aI5074
aI3585
aI7963
aI1402
aI2619
aI8063
aI7609
aI9167
aI1015
aI8415
aI8610
aI10505
aI7545
aI9935
aI2814
aI5512
aI2642
aI720
aI1894
aI3897
aI6224
aI6898
aI8627
aI8009
aI3831
aI1024
aI7750
aI4900
aI7085
aI10581
aI11
aI5185
aI3574
aI7735
aI5348
aI4161
aI4944
aI4782
aI8849
aI5292
aI4480
aI7614
aI4015
aI8390
aI9294
aI5939
aI2107
aI6775
aI3234
aI9434
aI5984
aI2452
aI1784
aI6853
aI1492
aI3199
aI5206
aI3144
aI10519
aI5692
aI3700
aI3355
aI9611
aI1526
aI2173
aI2701
aI5803
aI8722
aI9665
aI1313
aI1175
aI9562
aI4771
aI5069
aI1254
aI8068
aI5698
aI5997
aI8047
aI4362
aI5486
aI447
aI7480
aI4682
aI6041
aI5773
aI6177
aI417
aI7524
aI9976
aI4735
aI9961
aI8472
aI2356
aI1008
aI1809
aI8023
aI7662
aI9888
aI10203
aI618
aI9981
aI3884
aI6335
aI1943
aI4883
aI20
aI6839
aI2366
aI5940
aI5785
aI4309
aI9704
aI4379
aI1151
aI597
aI8289
aI5553
aI1847
aI3853
aI5075
aI6737
aI3575
aI2343
aI6468
aI10418
aI8923
aI4138
aI6005
aI2085
aI4975
aI665
aI8270
aI1631
aI7901
aI2742
aI9489
aI9953
aI9539
aI3086
aI266
aI951
aI7500
aI5594
aI5516
aI1635
aI6466
aI5683
aI6440
aI2224
aI10030
aI859
aI705
aI7502
aI6594
aI10212
aI1496
aI10142
aI5992
aI237
aI8866
aI8199
aI1094
aI4064
aI1152
aI7369
aI7432
aI9745
aI664
aI10423
aI9652
aI6886
aI4425
aI2684
aI3458
aI7110
aI6434
aI1441
aI6988
aI437
aI8242
aI9337
aI5859
aI5336
aI1718
aI9425
aI5840
aI4981
aI6615
aI9578
aI1306
aI6113
aI2871
aI3888
aI3951
aI8889
aI2057
aI6903
aI4742
aI3769
aI10310
aI10651
aI5712
aI2209
aI8823
aI1358
aI340
aI3733
aI4427
aI7361
aI9414
aI6908
aI9423
aI5114
aI4375
aI683
aI5770
aI2061
aI4776
aI755
aI6929
aI8989
aI3139
aI7618
aI9507
aI2564
aI8011
aI9569
aI1769
aI6453
aI3014
aI9171
aI9511
aI8374
aI5367
aI9237
aI9156
aI1444
aI9998
aI9806
aI1442
aI4968
aI8004
aI6472
aI4612
aI7293
aI6
aI8416
aI4952
aI2459
aI636
aI9099
aI3722
aI2793
aI2497
aI4660
aI10015
aI5601
aI1720
aI9085
aI3550
aI3258
aI5263
aI6192
aI140
aI6416
aI5265
aI9198
aI5869
aI360
aI6229
aI9662
aI4192
aI3054
aI2479
aI10112
aI8288
aI9412
aI10074
aI1945
aI2304
aI916
aI5644
aI2332
aI1218
aI815
aI4366
aI4144
aI3483
aI1873
aI3370
aI5827
aI4283
aI9042
aI7975
aI8534
aI2306
aI5000
aI289
aI5449
aI1577
aI8641
aI263
aI6605
aI3924
aI5401
aI3298
aI8966
aI5260
aI7095
aI5286
aI194
aI1508
aI6700
aI4175
aI9655
aI4325
aI8255
aI1614
aI7793
aI2725
aI5118
aI3650
aI7692
aI6322
aI7659
aI8379
aI627
aI433
aI7495
aI8902
aI4394
aI6875
aI757
aI491
aI4545
aI4463
aI4264
aI6683
aI5225
aI8575
aI7501
aI6133
aI2454
aI9830
aI9440
aI6258
aI1628
aI1885
aI512
aI9796
aI8240
aI5106
aI6958
aI2683
aI3724
aI1727
aI8757
aI6118
aI1506
aI4282
aI3940
aI2563
aI1290
aI6941
aI2863
aI8631
aI1096
aI5050
aI9526
aI5227
aI150
aI1289
aI2866
aI7276
aI5307
aI4844
aI2234
aI8297
aI3246
aI4494
aI1900
aI2357
aI3230
aI8793
aI4356
aI6770
aI4090
aI3341
aI421
aI562
aI10344
aI2633
aI8855
aI6704
aI4848
aI3774
aI4876
aI4195
aI2840
aI4188
aI10497
aI6286
aI8878
aI5622
aI4609
aI6566
aI2070
aI4336
aI5052
aI6135
aI8269
aI244
aI738
aI5042
aI9766
aI3303
aI6038
aI9030
aI164
aI6536
aI8894
aI4483
aI5217
aI929
aI3625
aI3659
aI5422
aI964
aI2805
aI80
aI5656
aI8290
aI1001
aI8323
aI4484
aI2788
aI1099
aI6939
aI4657
aI5762
aI9502
aI2054
aI5480
aI9313
aI9753
aI3601
aI4455
aI6009
aI7051
aI7310
aI912
aI1470
aI8216
aI8961
aI7184
aI4378
aI8898
aI6413
aI1183
aI8557
aI1962
aI4447
aI1500
aI733
aI4967
aI9322
aI2807
aI7243
aI43
aI9934
aI9579
aI5481
aI2669
aI5410
aI499
aI9919
aI9978
aI4849
aI3989
aI8384
aI8701
aI4911
aI5973
aI6169
aI5641
aI9218
aI6347
aI1772
aI3292
aI10236
aI6797
aI7637
aI4868
aI2508
aI6528
aI7195
aI6811
aI3771
aI8026
aI5194
aI3689
aI4054
aI1924
aI8523
aI5705
aI3237
aI8173
aI6637
aI1367
aI2856
aI7055
aI679
aI4704
aI2956
aI9348
aI7186
aI4402
aI4851
aI9591
aI9865
aI7976
aI10318
aI4253
aI62
aI5456
aI5077
aI10447
aI2352
aI8697
aI2545
aI9870
aI903
aI67
aI6950
aI1742
aI622
aI398
aI4998
aI10100
aI1582
aI5567
aI8680
aI10033
aI2739
aI4686
aI8601
aI8457
aI2615
aI3064
aI2605
aI5188
aI2957
aI4841
aI959
aI1511
aI6517
aI1658
aI7967
aI6183
aI7703
aI4135
aI1417
aI5629
aI9083
aI5560
aI965
aI2265
aI132
aI5252
aI9197
aI9616
aI5561
aI10449
aI4230
aI799
aI9068
aI5403
aI6553
aI3846
aI9292
aI7808
aI5856
aI5581
aI9224
aI7830
aI8861
aI5304
aI6103
aI4907
aI1479
aI5743
aI10048
aI8905
aI814
aI6946
aI1427
aI8328
aI4326
aI5234
aI4629
aI3432
aI3270
aI2005
aI7902
aI3507
aI8223
aI10270
aI6227
aI4290
aI7114
aI7620
aI9944
aI1617
aI8006
aI6476
aI890
aI601
aI257
aI8791
aI599
aI5527
aI8144
aI6668
aI7420
aI6574
aI7987
aI876
aI5652
aI4694
aI2019
aI4786
aI6157
aI6749
aI3834
aI8977
aI1269
aI5732
aI578
aI5010
aI7474
aI4707
aI3189
aI9056
aI4107
aI3059
aI6771
aI7929
aI9680
aI10125
aI9711
aI5867
aI8568
aI338
aI5520
aI9320
aI9018
aI6934
aI235
aI6436
aI2086
aI3003
aI2732
aI652
aI2987
aI321
aI9532
aI1822
aI4929
aI9508
aI7746
aI8261
aI6690
aI3660
aI6691
aI2022
aI9624
aI7949
aI3055
aI7101
aI5573
aI2704
aI5487
aI5198
aI6334
aI2276
aI5064
aI7576
aI9737
aI5708
aI8007
aI9873
aI3649
aI8339
aI6629
aI5117
aI10231
aI914
aI9164
aI3634
aI6755
aI2361
aI1004
aI9904
aI7289
aI488
aI422
aI6271
aI5061
aI8330
aI8253
aI8877
aI1528
aI9057
aI5232
aI8620
aI2225
aI5251
aI4816
aI9145
aI1233
aI6831
aI7068
aI9010
aI8675
aI7017
aI5341
aI2485
aI2561
aI9836
aI5196
aI7905
aI2922
aI7604
aI4241
aI8367
aI6852
aI9310
aI5164
aI4798
aI8426
aI6066
aI9054
aI9504
aI1340
aI7892
aI2490
aI7111
aI5801
aI6191
aI5834
aI7572
aI116
aI10133
aI2393
aI4600
aI6068
aI4752
aI3399
aI6494
aI2931
aI5687
aI8110
aI1910
aI5163
aI10022
aI6752
aI2117
aI7696
aI4413
aI454
aI2268
aI10274
aI8886
aI7365
aI5606
aI5134
aI5027
aI9928
aI1119
aI714
aI3864
aI4429
aI7829
aI336
aI3670
aI6945
aI4024
aI4779
aI9376
aI7868
aI1556
aI4296
aI6339
aI7920
aI133
aI240
aI6301
aI3822
aI5715
aI6608
aI9536
aI7834
aI1215
aI586
aI6916
aI6031
aI7870
aI3227
aI2903
aI7890
aI1831
aI7352
aI5187
aI52
aI8936
aI6242
aI2058
aI8091
aI3582
aI4025
aI2661
aI3812
aI6284
aI2029
aI2253
aI8749
aI6997
aI986
aI3715
aI5654
aI7327
aI2200
aI4942
aI6607
aI4912
aI3696
aI1516
aI77
aI3460
aI3602
aI6519
aI7513
aI4622
aI7205
aI332
aI8496
aI7996
aI10087
aI561
aI10543
aI817
aI8831
aI1693
aI4800
aI2470
aI3353
aI5982
aI1794
aI2129
aI6176
aI362
aI2142
aI6406
aI5247
aI3938
aI9793
aI8366
aI1871
aI9618
aI1171
aI7998
aI9831
aI2102
aI8794
aI8287
aI2797
aI1103
aI7412
aI10604
aI2989
aI8406
aI1804
aI233
aI6097
aI8201
aI2531
aI6312
aI2557
aI2213
aI4478
aI6142
aI3970
aI1796
aI6384
aI2151
aI9439
aI9192
aI5337
aI1979
aI4200
aI1438
aI5651
aI4875
aI7965
aI6907
aI4125
aI9565
aI4043
aI2323
aI7345
aI7065
aI9389
aI5723
aI438
aI1476
aI6159
aI5675
aI3443
aI1715
aI8232
aI7020
aI6935
aI3968
aI6563
aI2590
aI4974
aI8971
aI8906
aI2157
aI5700
aI1725
aI6970
aI5571
aI4659
aI7671
aI7521
aI5197
aI8101
aI9724
aI2945
aI3885
aI4810
aI5649
aI8907
aI8591
aI4669
aI7287
aI5020
aI7837
aI1985
aI942
aI5915
aI6705
aI3067
aI4765
aI5461
aI6701
aI1025
aI9334
aI5236
aI3392
aI8608
aI6630
aI394
aI3049
aI10154
aI7733
aI7414
aI3126
aI950
aI8587
aI10155
aI8674
aI6894
aI4053
aI6782
aI819
aI5569
aI9898
aI9230
aI999
aI9501
aI7629
aI4866
aI3442
aI6455
aI1736
aI9335
aI181
aI399
aI7774
aI8654
aI174
aI7353
aI5901
aI6932
aI2620
aI8489
aI10473
aI7908
aI3323
aI9688
aI4203
aI7700
aI3259
aI7663
aI4813
aI2171
aI286
aI7436
aI15
aI3728
aI7035
aI8177
aI8683
aI10395
aI4482
aI7179
aI3084
aI1906
aI10090
aI4531
aI3928
aI6614
aI8050
aI1332
aI6086
aI7886
aI401
aI6523
aI7052
aI6300
aI3381
aI2280
aI8718
aI7212
aI10005
aI9775
aI9446
aI7478
aI4150
aI10373
aI7649
aI6835
aI3874
aI4675
aI909
aI2685
aI7056
aI1751
aI5848
aI4272
aI4058
aI4414
aI9319
aI5621
aI9009
aI5248
aI4456
aI7935
aI412
aI10157
aI1093
aI4697
aI5729
aI4877
aI580
aI4346
aI8348
aI4038
aI6467
aI1595
aI3384
aI6915
aI500
aI5858
aI4501
aI4672
aI10343
aI4497
aI6238
aI9404
aI7103
aI455
aI5180
aI6549
aI1339
aI7639
aI9091
aI6747
aI10317
aI4584
aI9466
aI803
aI7208
aI5609
aI988
aI7588
aI9631
aI7422
aI6734
aI1671
aI2588
aI5241
aI3995
aI5657
aI3379
aI7613
aI1245
aI5296
aI357
aI5364
aI10654
aI6864
aI4614
aI2897
aI9400
aI10613
aI1142
aI8399
aI9140
aI10458
aI322
aI10508
aI8739
aI9429
aI553
aI1349
aI1700
aI719
aI9636
aI4059
aI1953
aI8250
aI2331
aI4884
aI9552
aI1529
aI7561
aI4285
aI9189
aI182
aI10601
aI6873
aI9522
aI7519
aI1865
aI113
aI6372
aI6543
aI10046
aI8030
aI7102
aI3925
aI3777
aI6710
aI7939
aI381
aI6901
aI8376
aI4840
aI9730
aI3927
aI9845
aI8767
aI7903
aI4702
aI8857
aI9610
aI6306
aI4269
aI348
aI8716
aI7698
aI5379
aI3181
aI1785
aI1986
aI6063
aI10245
aI7400
aI8684
aI8451
aI9235
aI4155
aI3994
aI1926
aI7721
aI299
aI930
aI1425
aI5563
aI5761
aI5136
aI5911
aI5874
aI4870
aI9735
aI1561
aI1083
aI138
aI6551
aI2527
aI5079
aI4950
aI3606
aI2384
aI9852
aI1348
aI2134
aI6117
aI1530
aI8169
aI7062
aI8820
aI1643
aI9330
aI8487
aI7251
aI2341
aI3604
aI514
aI7129
aI1892
aI2594
aI41
aI963
aI7854
aI9948
aI1699
aI9637
aI10321
aI3121
aI1214
aI1087
aI4679
aI9653
aI794
aI8175
aI1468
aI2877
aI290
aI1574
aI9474
aI250
aI3446
aI6884
aI8087
aI9219
aI3842
aI2999
aI9712
aI7930
aI198
aI954
aI6325
aI4897
aI4143
aI8394
aI3026
aI2599
aI3510
aI5222
aI2430
aI6933
aI3895
aI8994
aI8198
aI3212
aI146
aI6418
aI2854
aI1758
aI628
aI5149
aI4539
aI2992
aI4904
aI2026
aI9471
aI66
aI7785
aI2660
aI5945
aI2648
aI10405
aI4619
aI2402
aI285
aI7801
aI2148
aI2595
aI2692
aI8046
aI1498
aI1138
aI32
aI10487
aI9266
aI295
aI6487
aI143
aI1853
aI826
aI8529
aI2235
aI976
aI8653
aI6030
aI2444
aI3248
aI7554
aI6138
aI5151
aI7458
aI2318
aI1098
aI7385
aI10328
aI9584
aI3633
aI2806
aI10153
aI9648
aI9041
aI9354
aI4168
aI3656
aI8541
aI2548
aI3322
aI7776
aI3758
aI2287
aI9493
aI384
aI7789
aI118
aI10355
aI396
aI1827
aI4152
aI8252
aI9213
aI7761
aI3224
aI5568
aI3926
aI10534
aI8463
aI5331
aI9795
aI6158
aI9912
aI2978
aI8588
aI3528
aI2628
aI7893
aI6459
aI7599
aI1042
aI98
aI4133
aI7221
aI410
aI9324
aI10584
aI10388
aI323
aI2935
aI7384
aI4764
aI2623
aI6269
aI8536
aI1228
aI5517
aI10072
aI6329
aI124
aI3166
aI5591
aI8317
aI2924
aI9431
aI750
aI1589
aI6951
aI4749
aI2782
aI4905
aI1773
aI8018
aI9827
aI423
aI3501
aI1501
aI3486
aI415
aI1982
aI1797
aI6437
aI8191
aI7928
aI3120
aI6525
aI5013
aI1840
aI8687
aI2425
aI9910
aI3046
aI1050
aI6994
aI6787
aI9533
aI8521
aI4676
aI9684
aI997
aI3263
aI3681
aI9240
aI3564
aI2774
aI9544
aI9690
aI1646
aI10535
aI5083
aI2602
aI10594
aI6857
aI3431
aI9629
aI72
aI2779
aI9756
aI1652
aI7732
aI1064
aI4323
aI3245
aI7748
aI9233
aI3764
aI1777
aI3747
aI6541
aI9983
aI1753
aI2440
aI3427
aI771
aI4856
aI8630
aI4830
aI523
aI2698
aI5059
aI10041
aI7257
aI7451
aI1143
aI6326
aI7323
aI5176
aI7297
aI4854
aI9223
aI1845
aI6107
aI9459
aI4355
aI8316
aI3344
aI5377
aI7707
aI7655
aI4235
aI9987
aI5546
aI537
aI8043
aI1384
aI5988
aI2164
aI3562
aI1210
aI7468
aI3315
aI9607
aI8656
aI4174
aI8265
aI2526
aI4536
aI4428
aI9121
aI3600
aI10407
aI6613
aI5
aI7530
aI4334
aI10444
aI4924
aI7284
aI3753
aI6963
aI4127
aI6622
aI8772
aI3540
aI4580
aI798
aI3632
aI463
aI376
aI3552
aI10148
aI8440
aI9729
aI2670
aI1832
aI7224
aI2706
aI8563
aI2825
aI3192
aI10307
aI9098
aI2439
aI5115
aI5655
aI5261
aI7579
aI2231
aI4578
aI2738
aI6270
aI2034
aI7552
aI8829
aI6568
aI7237
aI8645
aI9044
aI10058
aI1981
aI5786
aI5884
aI9942
aI8003
aI1812
aI3515
aI3509
aI4410
aI3672
aI5219
aI9860
aI7606
aI7743
aI944
aI5086
aI5673
aI6266
aI9097
aI2407
aI3765
aI595
aI4809
aI5936
aI1551
aI813
aI10549
aI3922
aI6431
aI3505
aI2895
aI741
aI260
aI8244
aI1473
aI4964
aI10131
aI6511
aI1783
aI646
aI6955
aI8206
aI3856
aI9305
aI5113
aI5679
aI9092
aI9697
aI10013
aI9646
aI4685
aI8758
aI1046
aI1515
aI7350
aI5091
aI1974
aI6620
aI10060
aI2873
aI691
aI10301
aI7315
aI5967
aI7603
aI8731
aI2398
aI2387
aI3911
aI546
aI5374
aI10147
aI5152
aI10363
aI1592
aI278
aI5404
aI9949
aI10440
aI2480
aI1105
aI10582
aI1480
aI8817
aI5469
aI6379
aI7391
aI3982
aI7835
aI6331
aI8720
aI9695
aI6072
aI3644
aI2421
aI5462
aI8259
aI7879
aI2760
aI3005
aI7464
aI1955
aI10129
aI9921
aI8513
aI10279
aI3090
aI7546
aI1603
aI7685
aI10265
aI127
aI4274
aI2092
aI8282
aI4052
aI7942
aI4218
aI9326
aI10026
aI1761
aI1908
aI5866
aI7160
aI4528
aI7066
aI2468
aI5345
aI351
aI3362
aI1080
aI6493
aI1912
aI3226
aI2553
aI7658
aI7254
aI3755
aI5765
aI1825
aI8214
aI5616
aI1413
aI5009
aI7241
aI9075
aI10233
aI8717
aI9116
aI3945
aI4120
aI8512
aI5476
aI4993
aI3503
aI10222
aI45
aI8868
aI8239
aI8158
aI5979
aI1913
aI10258
aI7262
aI10139
aI2226
aI9379
aI8382
aI9454
aI4062
aI9614
aI5240
aI3930
aI7285
aI5604
aI6499
aI2078
aI1587
aI1509
aI6558
aI3848
aI8975
aI4874
aI4698
aI1887
aI5523
aI8826
aI8212
aI5386
aI1404
aI6444
aI7514
aI674
aI4692
aI3031
aI7623
aI8292
aI9442
aI10467
aI727
aI2748
aI4760
aI7509
aI3345
aI5602
aI8555
aI4988
aI7057
aI9527
aI5122
aI1531
aI1593
aI7398
aI3134
aI1388
aI6053
aI3115
aI508
aI4500
aI6796
aI7605
aI8443
aI9971
aI9899
aI10576
aI8908
aI5178
aI1386
aI1229
aI7339
aI3028
aI2891
aI10289
aI836
aI4479
aI4879
aI2311
aI10215
aI4021
aI7142
aI8779
aI3580
aI1581
aI7584
aI8215
aI8822
aI9445
aI5906
aI8892
aI2111
aI2211
aI1292
aI2060
aI9406
aI4011
aI4132
aI1453
aI9672
aI2000
aI6975
aI10127
aI2242
aI6099
aI10272
aI1828
aI9889
aI4869
aI9306
aI9632
aI10351
aI742
aI10554
aI7094
aI7855
aI2838
aI8052
aI435
aI1760
aI8192
aI4917
aI16
aI466
aI10291
aI1153
aI6080
aI1456
aI5872
aI2865
aI3339
aI4640
aI9415
aI5914
aI319
aI9894
aI7466
aI8074
aI2062
aI6438
aI2128
aI9761
aI440
aI6870
aI9586
aI6149
aI3863
aI7660
aI1305
aI7515
aI3549
aI3206
aI5775
aI5393
aI886
aI4385
aI1733
aI6282
aI4667
aI6746
aI5281
aI10253
aI4922
aI5833
aI6429
aI2334
aI8444
aI9451
aI3789
aI8603
aI2882
aI2826
aI3023
aI9789
aI6398
aI7904
aI1965
aI6251
aI2749
aI450
aI4400
aI2772
aI4508
aI8183
aI9327
aI904
aI2158
aI5257
aI8166
aI444
aI9605
aI470
aI5730
aI468
aI3162
aI9542
aI8461
aI6500
aI3619
aI9134
aI9960
aI9258
aI8002
aI2965
aI3569
aI1268
aI8569
aI5511
aI2643
aI6601
aI1533
aI3110
aI8650
aI2410
aI9783
aI253
aI10564
aI5491
aI2929
aI7593
aI3060
aI39
aI3135
aI9994
aI3009
aI8797
aI4864
aI5528
aI8655
aI8825
aI4551
aI8774
aI3242
aI1169
aI3630
aI3235
aI7619
aI8579
aI10180
aI4228
aI6686
aI4019
aI10098
aI1919
aI1308
aI5864
aI731
aI5313
aI1741
aI345
aI8295
aI69
aI296
aI1353
aI3591
aI5005
aI4081
aI4068
aI2638
aI8085
aI6184
aI10476
aI3794
aI7727
aI8077
aI1144
aI4288
aI8818
aI1904
aI42
aI3138
aI8873
aI2486
aI9640
aI10359
aI8525
aI9174
aI1273
aI320
aI2064
aI9513
aI4802
aI7647
aI4180
aI9574
aI6751
aI2123
aI6660
aI3513
aI9100
aI7117
aI5663
aI4369
aI4880
aI3663
aI4123
aI10644
aI6218
aI10578
aI1206
aI10325
aI484
aI9034
aI9205
aI6867
aI3736
aI6277
aI2143
aI2571
aI4238
aI6912
aI10533
aI5439
aI6131
aI9858
aI6696
aI5382
aI106
aI9673
aI7164
aI1034
aI845
aI5385
aI8355
aI10461
aI474
aI3478
aI4449
aI2456
aI7635
aI2313
aI550
aI3773
aI6591
aI176
aI8358
aI7091
aI692
aI2614
aI298
aI712
aI9309
aI10531
aI6656
aI5018
aI1109
aI9725
aI9788
aI8667
aI3832
aI1723
aI4570
aI827
aI5155
aI5165
aI3898
aI644
aI2296
aI3942
aI701
aI7926
aI8431
aI3012
aI3045
aI10051
aI3838
aI8763
aI5036
aI1911
aI2758
aI4029
aI9594
aI8083
aI687
aI9182
aI9267
aI2641
aI10478
aI6943
aI8546
aI5496
aI9339
aI2449
aI2521
aI9338
aI2719
aI6666
aI949
aI9001
aI7219
aI4645
aI1638
aI7322
aI7299
aI3745
aI6616
aI228
aI8583
aI7493
aI5805
aI10463
aI10417
aI3748
aI5645
aI4327
aI3484
aI5278
aI4392
aI4930
aI6456
aI6095
aI6534
aI7611
aI1565
aI3829
aI9094
aI9820
aI7766
aI314
aI7280
aI2541
aI2886
aI7249
aI7027
aI4222
aI970
aI4725
aI8014
aI2227
aI6043
aI8780
aI5285
aI2846
aI8062
aI2397
aI6253
aI262
aI6165
aI9260
aI4985
aI6280
aI6152
aI9129
aI10281
aI8835
aI772
aI10242
aI795
aI6055
aI3752
aI477
aI2489
aI6186
aI2073
aI493
aI8934
aI1566
aI4931
aI4680
aI3473
aI10238
aI1952
aI2898
aI7446
aI5843
aI935
aI6805
aI4509
aI7780
aI3677
aI55
aI3806
aI7494
aI1467
aI892
aI4187
aI5417
aI7139
aI1225
aI3915
aI7008
aI4294
aI9686
aI10175
aI2603
aI3873
aI7556
aI7029
aI5746
aI3934
aI3330
aI8844
aI973
aI1370
aI2843
aI998
aI1660
aI10324
aI5756
aI6026
aI10115
aI8540
aI8874
aI2099
aI5389
aI8509
aI4194
aI4757
aI9249
aI3702
aI956
aI6899
aI10111
aI4654
aI1996
aI10432
aI5766
aI2130
aI6924
aI4700
aI8111
aI1125
aI6600
aI7402
aI4078
aI1471
aI2860
aI3238
aI558
aI10292
aI4759
aI7183
aI5416
aI7783
aI1624
aI2786
aI3739
aI3504
aI9608
aI7459
aI3563
aI5795
aI5871
aI1018
aI4177
aI517
aI3652
aI6645
aI6921
aI4056
aI6012
aI5138
aI4198
aI7253
aI6471
aI7484
aI4
aI6819
aI7461
aI7172
aI6964
aI10367
aI2899
aI481
aI645
aI7396
aI3070
aI4576
aI7336
aI4412
aI1536
aI559
aI1502
aI8806
aI3608
aI3674
aI9289
aI4010
aI10205
aI10116
aI10206
aI9005
aI9072
aI8263
aI10443
aI400
aI4553
aI4475
aI10181
aI6039
aI293
aI8258
aI5643
aI7452
aI1770
aI4671
aI1357
aI4124
aI9365
aI10648
aI5564
aI8015
aI8079
aI9079
aI9298
aI2161
aI4097
aI1053
aI10352
aI9153
aI5965
aI3359
aI5342
aI9643
aI2918
aI1451
aI1027
aI6673
aI18
aI3210
aI3588
aI8652
aI3253
aI5315
aI7106
aI1209
aI10167
aI4474
aI9220
aI9848
aI6318
aI3958
aI10192
aI6776
aI641
aI83
aI2915
aI7247
aI7281
aI6825
aI4733
aI2794
aI4644
aI9132
aI806
aI5628
aI2195
aI6827
aI4516
aI1258
aI7046
aI9805
aI7246
aI5051
aI10369
aI10071
aI7447
aI3361
aI9344
aI2210
aI7137
aI590
aI8067
aI8482
aI4538
aI9315
aI9670
aI4690
aI1731
aI3416
aI1930
aI6340
aI5440
aI2650
aI8890
aI1891
aI3973
aI10280
aI4077
aI9238
aI1127
aI6173
aI3386
aI4409
aI5213
aI9881
aI3576
aI1316
aI4411
aI5625
aI3389
aI6567
aI4073
aI5755
aI65
aI10372
aI6352
aI3590
aI9717
aI1429
aI10516
aI4003
aI1205
aI3488
aI10191
aI229
aI6992
aI424
aI1939
aI1084
aI3704
aI6902
aI7547
aI7944
aI3979
aI3620
aI6822
aI9296
aI7701
aI9159
aI2074
aI3506
aI8359
aI7955
aI1191
aI5414
aI10402
aI7416
aI10600
aI6321
aI782
aI495
aI9656
aI7568
aI1817
aI6642
aI2596
aI5930
aI10214
aI212
aI10552
aI7744
aI7857
aI5103
aI8469
aI10611
aI5269
aI1065
aI1864
aI8839
aI8761
aI4829
aI5777
aI9087
aI9462
aI5927
aI1875
aI9913
aI3071
aI5182
aI6174
aI5250
aI4630
aI3388
aI7265
aI7861
aI6198
aI2703
aI2757
aI8924
aI5067
aI9519
aI8963
aI2516
aI2778
aI4287
aI3137
aI7533
aI383
aI2765
aI3198
aI5713
aI4027
aI1115
aI1016
aI7653
aI4611
aI5208
aI1220
aI1596
aI7463
aI2803
aI6244
aI268
aI7760
aI3271
aI8430
aI9391
aI3647
aI4099
aI5472
aI4254
aI5904
aI732
aI6635
aI4839
aI5495
aI1226
aI2239
aI5494
aI9512
aI3553
aI2481
aI2190
aI9112
aI6448
aI8853
aI8153
aI8446
aI3555
aI5008
aI7802
aI2828
aI3204
aI1632
aI3440
aI9441
aI8184
aI4628
aI8
aI2309
aI10042
aI520
aI2604
aI10577
aI989
aI3766
aI2536
aI3219
aI6315
aI9323
aI6592
aI8483
aI5826
aI3374
aI2269
aI1775
aI10548
aI875
aI4670
aI3435
aI4074
aI7507
aI10057
aI9765
aI8827
aI2671
aI7136
aI5671
aI1704
aI9356
aI4225
aI8834
aI6806
aI8404
aI4154
aI4812
aI7448
aI117
aI5830
aI10515
aI4921
aI760
aI2127
aI8776
aI10430
aI3208
aI6064
aI3295
aI6678
aI2495
aI5664
aI3457
aI2944
aI3007
aI10150
aI1278
aI6732
aI4708
aI3783
aI9363
aI9661
aI9278
aI8622
aI3743
aI5920
aI7586
aI6207
aI2487
aI1067
aI4490
aI5913
aI2939
aI7741
aI9447
aI4585
aI4973
aI4758
aI6765
aI2769
aI4371
aI3685
aI8531
aI9377
aI6547
aI6354
aI6034
aI6001
aI9906
aI6309
aI4214
aI5868
aI3334
aI2059
aI10302
aI9407
aI0
aI329
aI7024
aI7626
aI8545
aI10269
aI2832
aI2385
aI5710
aI7541
aI10103
aI3479
aI10187
aI10555
aI4395
aI2153
aI8105
aI8847
aI4121
aI8508
aI10213
aI7795
aI608
aI5938
aI1677
aI2136
aI2655
aI6845
aI3936
aI9183
aI9372
aI5408
aI2798
aI915
aI9101
aI5538
aI9287
aI4350
aI8982
aI6739
aI3320
aI8705
aI3500
aI4153
aI6538
aI3779
aI2373
aI10528
aI2859
aI7971
aI5338
aI3682
aI6572
aI4404
aI498
aI4941
aI5892
aI979
aI6105
aI7367
aI1902
aI2654
aI6200
aI7300
aI4532
aI7924
aI7457
aI4137
aI7090
aI7710
aI1607
aI3008
aI2911
aI3025
aI1409
aI10171
aI4085
aI6828
aI2597
aI3787
aI4656
aI848
aI10092
aI4627
aI1683
aI6355
aI1572
aI8539
aI7864
aI3657
aI4450
aI1932
aI442
aI6604
aI1257
aI4596
aI5707
aI4444
aI5001
aI5303
aI3933
aI9270
aI1320
aI1430
aI2250
aI2003
aI6185
aI7006
aI8260
aI3835
aI728
aI8553
aI9689
aI2713
aI7714
aI1174
aI614
aI4499
aI6078
aI3240
aI6726
aI752
aI3393
aI7193
aI2252
aI9060
aI9485
aI1600
aI7479
aI1740
aI2635
aI9564
aI10184
aI3352
aI2904
aI10445
aI5881
aI7019
aI2833
aI5017
aI4955
aI5144
aI10479
aI478
aI2207
aI10452
aI1550
aI184
aI6957
aI745
aI3845
aI10537
aI10383
aI5519
aI408
aI7715
aI625
aI3194
aI10122
aI1713
aI9744
aI4299
aI4167
aI8025
aI3595
aI6847
aI5861
aI5704
aI9357
aI9023
aI6428
aI5357
aI5728
aI5378
aI633
aI301
aI8856
aI8786
aI2776
aI9710
aI6799
aI6358
aI6114
aI1416
aI7510
aI7875
aI8665
aI5391
aI9903
aI5239
aI8439
aI7080
aI5549
aI874
aI7405
aI7728
aI4370
aI10494
aI5610
aI3988
aI3683
aI6583
aI2180
aI3718
aI5966
aI9157
aI9388
aI5574
aI3997
aI9411
aI472
aI2362
aI6810
aI3879
aI3437
aI5933
aI10365
aI4278
aI4789
aI4882
aI8326
aI9905
aI3462
aI7654
aI4397
aI4533
aI10566
aI7580
aI3268
aI9088
aI6626
aI7612
aI4310
aI3099
aI3844
aI9295
aI805
aI8613
aI6365
aI6210
aI5821
aI7968
aI9392
aI8477
aI8927
aI4343
aI10415
aI1706
aI3225
aI8338
aI8313
aI7303
aI8682
aI8955
aI1412
aI1075
aI2930
aI5841
aI3517
aI9286
aI4791
aI9196
aI928
aI3578
aI8574
aI1959
aI6460
aI4319
aI10174
aI9093
aI1241
aI1376
aI4496
aI5362
aI9992
aI630
aI1672
aI2735
aI5509
aI5395
aI7338
aI5204
aI1265
aI3423
aI10340
aI4446
aI6661
aI404
aI9370
aI61
aI7168
aI2960
aI10248
aI9468
aI4794
aI4797
aI3284
aI8351
aI9657
aI9751
aI8978
aI4186
aI3877
aI7535
aI6248
aI3827
aI9297
aI5718
aI8045
aI4079
aI9603
aI9705
aI1122
aI3687
aI7113
aI70
aI6759
aI699
aI5024
aI4935
aI952
aI6883
aI1818
aI2272
aI1640
aI3917
aI7037
aI5530
aI6502
aI6798
aI3932
aI2627
aI2995
aI9620
aI469
aI6219
aI1997
aI4358
aI349
aI1748
aI5676
aI4215
aI8276
aI5063
aI5030
aI8968
aI623
aI8165
aI5697
aI9755
aI2321
aI5007
aI6094
aI3858
aI445
aI7171
aI4881
aI6083
aI4139
aI8995
aI1823
aI8669
aI9248
aI3119
aI7716
aI3030
aI7787
aI10018
aI9883
aI4606
aI2887
aI943
aI6773
aI8795
aI2751
aI7321
aI7298
aI2925
aI2902
aI764
aI8093
aI3851
aI3148
aI7705
aI4713
aI657
aI6707
aI3036
aI2658
aI5095
aI5694
aI1899
aI3256
aI8340
aI8784
aI1484
aI10618
aI3264
aI1580
aI8748
aI2037
aI5941
aI5753
aI7167
aI8315
aI5862
aI7010
aI654
aI1264
aI4826
aI5693
aI8119
aI3434
aI4603
aI5259
aI7415
aI7218
aI4387
aI10460
aI6067
aI3597
aI5201
aI291
aI4360
aI8071
aI5774
aI3123
aI6016
aI1212
aI10583
aI10397
aI5716
aI8814
aI3177
aI7169
aI7174
aI6109
aI9263
aI8951
aI2176
aI538
aI2593
aI5289
aI2223
aI5562
aI2928
aI144
aI7583
aI1244
aI9002
aI905
aI28
aI2979
aI1576
aI1964
aI1461
aI502
aI3651
aI1610
aI8186
aI5166
aI4738
aI8193
aI1675
aI2586
aI9549
aI3302
aI3114
aI8919
aI1557
aI7209
aI7123
aI9314
aI5968
aI5153
aI4730
aI7833
aI8912
aI10027
aI924
aI2177
aI9367
aI3305
aI6767
aI703
aI9028
aI6791
aI2094
aI8770
aI8034
aI3180
aI335
aI1237
aI9020
aI583
aI2880
aI7921
aI10188
aI9155
aI1732
aI282
aI7687
aI6236
aI9633
aI1455
aI10546
aI1334
aI696
aI5447
aI7675
aI3935
aI8677
aI8502
aI707
aI10037
aI3222
aI4938
aI5996
aI4571
aI1157
aI7832
aI8012
aI2889
aI6565
aI6756
aI3719
aI1750
aI2909
aI6596
aI5412
aI2096
aI6310
aI4521
aI5665
aI6249
aI616
aI2435
aI8154
aI9535
aI1993
aI8969
aI6320
aI1757
aI7961
aI1694
aI2414
aI10136
aI4543
aI9006
aI4005
aI6363
aI9857
aI9675
aI4999
aI9047
aI552
aI9700
aI2847
aI1569
aI2849
aI9416
aI2790
aI7429
aI10113
aI9477
aI10435
aI2477
aI1010
aI1674
aI2319
aI2216
aI7646
aI5459
aI4689
aI5195
aI6794
aI369
aI8104
aI8816
aI5670
aI9179
aI5733
aI4445
aI896
aI7258
aI1562
aI2333
aI8035
aI7821
aI3385
aI8488
aI4954
aI4040
aI7286
aI10114
aI5340
aI4034
aI8325
aI8740
aI19
aI640
aI5200
aI3376
aI10235
aI10204
aI6073
aI8065
aI2538
aI8434
aI6477
aI1219
aI5725
aI8171
aI3491
aI10216
aI9694
aI4313
aI536
aI3645
aI2686
aI3530
aI9393
aI5437
aI626
aI5273
aI9658
aI7206
aI6834
aI2219
aI10043
aI5107
aI3428
aI10196
aI4847
aI10398
aI9741
aI4345
aI3727
aI1547
aI8254
aI136
aI7548
aI9809
aI3544
aI7520
aI945
aI8842
aI8345
aI2850
aI6161
aI7824
aI4814
aI7891
aI4116
aI3324
aI4401
aI4179
aI6391
aI4477
aI7641
aI2330
aI10219
aI1336
aI5309
aI4016
aI4435
aI3304
aI3190
aI543
aI88
aI9977
aI4724
aI8237
aI25
aI6081
aI10655
aI544
aI2539
aI5575
aI7688
aI6199
aI2328
aI3279
aI3020
aI10261
aI4928
aI3916
aI3073
aI3622
aI379
aI5211
aI9432
aI8626
aI1012
aI3781
aI3901
aI7378
aI1317
aI8899
aI1776
aI6308
aI5146
aI3293
aI8333
aI2663
aI3309
aI2900
aI8533
aI2503
aI8342
aI9800
aI8598
aI8281
aI9782
aI7105
aI6361
aI7194
aI10183
aI279
aI3418
aI8041
aI2262
aI7617
aI3892
aI10066
aI7782
aI5135
aI9623
aI4693
aI5011
aI4639
aI4292
aI3380
aI482
aI6399
aI6328
aI9708
aI9654
aI1814
aI1897
aI2914
aI775
aI9024
aI1224
aI869
aI9843
aI1179
aI9046
aI6730
aI2351
aI7119
aI2420
aI1077
aI1146
aI7453
aI7155
aI3413
aI5467
aI4263
aI3369
aI8134
aI3233
aI7589
aI6028
aI2630
aI8016
aI4956
aI7489
aI2560
aI10632
aI9914
aI8921
aI5633
aI1203
aI8010
aI9937
aI8264
aI4949
aI9545
aI7540
aI2816
aI10035
aI1571
aI8286
aI8344
aI1164
aI1505
aI9791
aI1609
aI6057
aI1764
aI6892
aI1049
aI6521
aI7145
aI2938
aI7161
aI4229
aI9799
aI480
aI1504
aI5044
aI4623
aI4817
aI6492
aI4819
aI6533
aI7956
aI3214
aI9497
aI10161
aI3411
aI2392
aI368
aI1696
aI5577
aI4801
aI862
aI3187
aI529
aI7820
aI6859
aI6925
aI5667
aI3364
aI8517
aI4526
aI3407
aI1381
aI372
aI9592
aI8726
aI7203
aI7762
aI4717
aI8851
aI9626
aI2975
aI1682
aI8396
aI6222
aI3336
aI6108
aI2728
aI10475
aI9609
aI10177
aI5432
aI3881
aI7815
aI4349
aI6231
aI6804
aI2575
aI5741
aI6136
aI6665
aI816
aI8522
aI1807
aI8445
aI2736
aI339
aI8914
aI1560
aI5701
aI4419
aI8019
aI3548
aI4045
aI10626
aI5049
aI3825
aI1291
aI8983
aI1813
aI6947
aI10009
aI6858
aI5297
aI6758
aI6386
aI5849
aI7964
aI1738
aI8777
aI2499
aI7628
aI10141
aI3218
aI10241
aI9043
aI5282
aI8602
aI3450
aI203
aI8222
aI4165
aI8666
aI9890
aI861
aI10293
aI1507
aI53
aI1604
aI2203
aI5317
aI3269
aI4978
aI10522
aI191
aI4105
aI347
aI3617
aI4617
aI6653
aI10419
aI333
aI1056
aI9232
aI662
aI4544
aI1368
aI9031
aI4075
aI6397
aI9720
aI6833
aI1656
aI1935
aI9014
aI3129
aI10636
aI9067
aI3280
aI3382
aI923
aI10126
aI2555
aI8022
aI3974
aI1352
aI3655
aI1734
aI7717
aI3717
aI1396
aI1325
aI10406
aI4681
aI4171
aI10652
aI647
aI10158
aI8771
aI10502
aI7039
aI7200
aI5411
aI9897
aI7433
aI2271
aI1949
aI6182
aI5990
aI2981
aI7332
aI2324
aI864
aI1407
aI7430
aI3296
aI1645
aI7021
aI4598
aI2297
aI1937
aI6581
aI3738
aI4518
aI418
aI663
aI7706
aI1534
aI6121
aI10012
aI8061
aI5085
aI8605
aI2673
aI1005
aI5070
aI9360
aI8947
aI6426
aI9597
aI7722
aI3147
aI7239
aI8053
aI8424
aI3713
aI846
aI2347
aI8733
aI6337
aI1895
aI10410
aI3950
aI7719
aI310
aI3616
aI10639
aI8306
aI2676
aI6344
aI1918
aI7270
aI10218
aI9390
aI10514
aI6032
aI6296
aI10028
aI1167
aI3492
aI4070
aI6913
aI1929
aI2295
aI3761
aI6273
aI9095
aI9106
aI3098
aI6464
aI7676
aI3425
aI8745
aI2314
aI3955
aI10152
aI8809
aI3300
aI6646
aI2222
aI8408
aI2149
aI8146
aI3870
aI4515
aI6780
aI7842
aI6576
aI350
aI7645
aI2152
aI1149
aI4552
aI3802
aI8241
aI5433
aI6663
aI10016
aI3307
aI4048
aI4821
aI3157
aI4091
aI9288
aI4014
aI5532
aI363
aI5685
aI5143
aI1649
aI8590
aI8479
aI8161
aI9941
aI1394
aI2474
aI2733
aI10482
aI2731
aI9706
aI5488
aI3688
aI10347
aI4589
aI2181
aI3985
aI3100
aI6412
aI8979
aI7371
aI4643
aI10495
aI7087
aI171
aI7
aI8188
aI1808
aI9455
aI4166
aI3570
aI2288
aI9187
aI9893
aI2105
aI8624
aI3448
aI1126
aI8195
aI9649
aI1512
aI5902
aI1033
aI308
aI6606
aI3695
aI4406
aI6378
aI574
aI5394
aI6070
aI9096
aI1698
aI10573
aI2617
aI9264
aI4939
aI7666
aI2552
aI4594
aI5686
aI1842
aI17
aI7970
aI1304
aI8080
aI3603
aI2811
aI6141
aI6017
aI7360
aI6685
aI5720
aI9268
aI8713
aI2168
aI1998
aI8155
aI7288
aI9026
aI9731
aI6342
aI10361
aI125
aI4775
aI6996
aI2817
aI10506
aI3496
aI8210
aI3786
aI8708
aI6684
aI8283
aI8476
aI10021
aI1227
aI5427
aI6516
aI4102
aI6633
aI8086
aI9051
aI3679
aI7255
aI7036
aI2743
aI9077
aI5498
aI2509
aI5231
aI3661
aI2502
aI5400
aI10536
aI3439
aI10159
aI10162
aI786
aI6228
aI5944
aI5463
aI1282
aI4906
aI7553
aI4182
aI6816
aI2011
aI8876
aI7818
aI405
aI6304
aI2948
aI4302
aI9410
aI8958
aI9395
aI3035
aI7291
aI1072
aI3185
aI2982
aI3944
aI8964
aI151
aI4712
aI8915
aI9926
aI2664
aI3417
aI8775
aI975
aI5631
aI7850
aI7734
aI3477
aI9770
aI9111
aI6698
aI3538
aI6869
aI2943
aI6559
aI5632
aI9828
aI4696
aI4008
aI3076
aI8336
aI8648
aI3260
aI5150
aI2090
aI6736
aI3957
aI9241
aI1155
aI7192
aI4778
aI1403
aI6333
aI2039
aI8750
aI2577
aI1457
aI10509
aI3207
aI160
aI4328
aI10488
aI6226
aI8090
aI8049
aI7526
aI8581
aI10426
aI6779
aI7607
aI165
aI3165
aI4322
aI9666
aI8491
aI10305
aI5305
aI6087
aI9692
aI7814
aI1022
aI8984
aI4780
aI300
aI2382
aI6415
aI9719
aI7316
aI1133
aI6981
aI7454
aI1866
aI7720
aI9859
aI2201
aI2609
aI2464
aI8021
aI7517
aI1238
aI9482
aI10311
aI9956
aI5087
aI10498
aI10290
aI5191
aI1541
aI5525
aI3467
aI2433
aI1182
aI5964
aI9577
aI8238
aI1466
aI3821
aI7063
aI6695
aI3378
aI4703
aI4239
aI10453
aI4564
aI3705
aI3202
aI6954
aI10603
aI3257
aI6989
aI6360
aI10427
aI5268
aI486
aI3673
aI5831
aI6503
aI5120
aI9481
aI1695
aI1059
aI4959
aI78
aI1641
aI7642
aI9428
aI10068
aI8365
aI8538
aI4902
aI5752
aI2110
aI3791
aI10119
aI9790
aI3118
aI6762
aI565
aI3991
aI7777
aI9299
aI10470
aI3216
aI6275
aI3200
aI5959
aI6230
aI397
aI1097
aI540
aI6540
aI983
aI6866
aI9405
aI6733
aI8056
aI1618
aI2159
aI8657
aI5258
aI4688
aI7069
aI10008
aI6478
aI2973
aI170
aI2513
aI344
aI7392
aI8593
aI6617
aI3780
aI8755
aI9877
aI820
aI8883
aI3089
aI9849
aI7779
aI4908
aI57
aI3408
aI8179
aI9450
aI2418
aI6123
aI1350
aI5972
aI3022
aI8505
aI1431
aI10295
aI1379
aI5205
aI8137
aI6815
aI1627
aI2612
aI5308
aI2708
aI4951
aI785
aI1354
aI6879
aI8400
aI6991
aI5787
aI3037
aI7559
aI9203
aI7536
aI3013
aI5515
aI3711
aI5956
aI3042
aI1503
aI6910
aI680
aI3547
aI8180
aI2030
aI7516
aI8597
aI10088
aI1860
aI496
aI677
aI5428
aI7906
aI10532
aI6029
aI303
aI4061
aI7250
aI3335
aI3041
aI2260
aI10006
aI5811
aI1882
aI2745
aI901
aI8224
aI5276
aI747
aI4340
aI2885
aI7995
aI8176
aI4674
aI587
aI3290
aI4118
aI9617
aI36
aI7557
aI7900
aI8668
aI8484
aI5413
aI48
aI1862
aI9691
aI4565
aI9794
aI758
aI1190
aI1605
aI1616
aI1867
aI309
aI3807
aI3104
aI10316
aI8478
aI9084
aI510
aI8467
aI8190
aI37
aI7872
aI9601
aI4846
aI5458
aI7505
aI5181
aI5798
aI1878
aI4240
aI6096
aI10050
aI2411
aI9255
aI3163
aI6714
aI6843
aI4190
aI6876
aI6650
aI6677
aI7301
aI9787
aI1216
aI1141
aI669
aI6088
aI10250
aI9029
aI6175
aI4566
aI7372
aI2258
aI5626
aI8102
aI7883
aI1619
aI1947
aI5727
aI3244
aI7264
aI4206
aI10570
aI3615
aI870
aI4390
aI5721
aI10091
aI9120
aI10304
aI1957
aI2647
aI10246
aI10247
aI2016
aI9920
aI5088
aI9146
aI9384
aI519
aI1762
aI2383
aI10130
aI429
aI6891
aI7749
aI294
aI6411
aI1029
aI4718
aI2476
aI7959
aI2919
aI2511
aI137
aI4423
aI6651
aI4237
aI1659
aI9915
aI7990
aI427
aI1710
aI994
aI2682
aI8371
aI10160
aI1044
aI2734
aI1552
aI6644
aI3111
aI1747
aI4291
aI6209
aI4268
aI9573
aI2255
aI8646
aI2777
aI6774
aI6305
aI3000
aI461
aI5778
aI8614
aI1414
aI3981
aI804
aI7946
aI2955
aI5551
aI9816
aI2212
aI4804
aI2346
aI3
aI5890
aI5489
aI2413
aI7856
aI721
aI8205
aI1613
aI10255
aI9430
aI1435
aI5173
aI8369
aI3291
aI5332
aI1821
aI5758
aI9281
aI8950
aI8946
aI3691
aI10371
aI6552
aI3080
aI6885
aI1535
aI1223
aI5624
aI5835
aI7235
aI9135
aI8859
aI6424
aI8704
aI761
aI6343
aI2115
aI1599
aI1702
aI1537
aI9492
aI9664
aI7374
aI8548
aI2146
aI3525
aI966
aI602
aI4665
aI3768
aI1989
aI911
aI8884
aI3862
aI4746
aI7896
aI9191
aI10273
aI5550
aI8247
aI1486
aI4173
aI2667
aI637
aI3373
aI8167
aI9317
aI8570
aI4555
aI1575
aI2558
aI5548
aI2451
aI780
aI9003
aI7156
aI3850
aI7210
aI8830
aI6441
aI5814
aI6917
aI2961
aI5179
aI1951
aI2770
aI9137
aI10422
aI4117
aI4006
aI3571
aI1650
aI8243
aI2996
aI7555
aI541
aI1287
aI10104
aI7788
aI1198
aI5098
aI1768
aI6611
aI7656
aI5368
aI10538
aI4141
aI2066
aI4574
aI7988
aI4842
aI5508
aI1954
aI358
aI9488
aI9602
aI4739
aI1129
aI8559
aI6252
aI2656
aI3311
aI3732
aI4088
aI681
aI9879
aI4009
aI4408
aI8221
aI10483
aI3866
aI8990
aI9621
aI1933
aI10433
aI3947
aI8196
aI2160
aI4440
aI9312
aI7274
aI4249
aI740
aI524
aI9177
aI2888
aI231
aI3665
aI4372
aI1815
aI7362
aI3132
aI4094
aI8600
aI4504
aI4103
aI2428
aI2812
aI6381
aI9878
aI1399
aI10170
aI9142
aI1132
aI1058
aI8867
aI2755
aI7207
aI621
aI8759
aI1395
aI9103
aI10106
aI7364
aI2905
aI3482
aI9214
aI1276
aI9988
aI377
aI4783
aI4273
aI7925
aI639
aI10010
aI9505
aI5607
aI5510
aI6830
aI306
aI1387
aI7220
aI7379
aI10590
aI8711
aI834
aI3978
aI8304
aI2584
aI8542
aI108
aI3186
aI7424
aI5637
aI10326
aI2985
aI2868
aI571
aI3188
aI8433
aI5460
aI8719
aI5662
aI3837
aI9674
aI9049
aI787
aI917
aI2448
aI9739
aI9803
aI4807
aI2001
aI2645
aI2532
aI8378
aI4111
aI3586
aI10492
aI5335
aI871
aI4923
aI7044
aI9089
aI9514
aI9541
aI1849
aI7950
aI5750
aI6745
aI501
aI8233
aI4624
aI3701
aI2801
aI9436
aI2466
aI1655
aI8303
aI3011
aI8974
aI1123
aI21
aI6126
aI2514
aI4888
aI6402
aI4625
aI9814
aI9053
aI7096
aI8988
aI4007
aI3637
aI902
aI2165
aI6314
aI4597
aI3463
aI5003
aI3338
aI10029
aI204
aI7435
aI1139
aI7836
aI726
aI1156
aI4276
aI3349
aI6036
aI4191
aI7797
aI9161
aI3402
aI9426
aI1188
aI2651
aI3964
aI6119
aI9525
aI242
aI2507
aI10224
aI8854
aI10228
aI7032
aI4788
aI7816
aI4243
aI4421
aI7411
aI225
aI8773
aI9473
aI3572
aI3155
aI9589
aI2316
aI9293
aI10616
aI1824
aI1145
aI5579
aI4373
aI505
aI9371
aI5696
aI9421
aI4711
aI364
aI2307
aI995
aI4852
aI10332
aI9228
aI6156
aI1366
aI7173
aI8499
aI3918
aI1310
aI3141
aI8625
aI7831
aI3387
aI6777
aI9884
aI3962
aI7228
aI1790
aI8617
aI7245
aI851
aI7077
aI6461
aI5600
aI7534
aI7805
aI7863
aI5426
aI7858
aI10350
aI6744
aI2858
aI10469
aI60
aI8760
aI7359
aI175
aI4558
aI7238
aI4321
aI10105
aI8511
aI603
aI1601
aI6634
aI867
aI4443
aI8385
aI2754
aI2150
aI9381
aI4505
aI5073
aI6147
aI6483
aI6586
aI131
aI7522
aI10560
aI8042
aI4301
aI238
aI5922
aI2583
aI7951
aI4377
aI4862
aI1653
aI9262
aI8520
aI10653
aI4047
aI7792
aI7041
aI6960
aI3512
aI7163
aI5678
aI8129
aI6125
aI893
aI2338
aI7492
aI2178
aI1879
aI7770
aI837
aI7650
aI4271
aI1338
aI304
aI7038
aI7165
aI10437
aI10211
aI9170
aI7261
aI8417
aI4156
aI1341
aI7960
aI730
aI2144
aI2547
aI6788
aI4426
aI570
aI6973
aI611
aI8880
aI5406
aI10064
aI1041
aI2941
aI6061
aI3847
aI10374
aI8973
aI9452
aI7266
aI1780
aI7406
aI3875
aI8178
aI1371
aI158
aI2335
aI554
aI6560
aI7294
aI9699
aI172
aI9276
aI8008
aI7966
aI161
aI2263
aI5390
aI105
aI7092
aI226
aI9851
aI6056
aI5468
aI2277
aI7945
aI6405
aI5526
aI2116
aI7217
aI3889
aI1763
aI10165
aI8639
aI7927
aI4096
aI2544
aI1539
aI1071
aI2520
aI5888
aI1544
aI6262
aI8064
aI3107
aI1285
aI6010
aI3605
aI1117
aI3409
aI4519
aI7366
aI4754
aI8535
aI4488
aI3445
aI1621
aI7331
aI7389
aI10382
aI3557
aI3032
aI9570
aI4641
aI5012
aI2946
aI2317
aI2047
aI8640
aI6414
aI10362
aI9749
aI1297
aI1958
aI7112
aI2312
aI2717
aI7012
aI6217
aI5891
aI10286
aI6881
aI4498
aI9402
aI5057
aI8752
aI672
aI5809
aI6632
aI4363
aI5244
aI4267
aI4720
aI10190
aI9304
aI10331
aI8279
aI3004
aI5323
aI1883
aI10401
aI6713
aI9957
aI1060
aI9966
aI1620
aI9229
aI6050
aI1639
aI9202
aI10208
aI10185
aI4438
aI9862
aI5650
aI5588
aI2649
aI8694
aI4909
aI9900
aI3954
aI9709
aI1363
aI8527
aI8862
aI10625
aI1069
aI3480
aI6392
aI3618
aI1657
aI6532
aI6204
aI1573
aI10081
aI1279
aI6098
aI9194
aI5957
aI9931
aI6504
aI1446
aI7682
aI7135
aI9062
aI7399
aI6671
aI9841
aI2108
aI7569
aI9409
aI9676
aI5301
aI7527
aI1048
aI2518
aI3429
aI1450
aI2839
aI649
aI9321
aI4557
aI6490
aI2218
aI7275
aI1365
aI735
aI2300
aI7804
aI1002
aI6233
aI3109
aI8998
aI9911
aI4524
aI9922
aI2784
aI2582
aI1369
aI8643
aI8226
aI7162
aI1901
aI7128
aI7948
aI3520
aI1372
aI4986
aI2429
aI5354
aI8824
aI2455
aI6011
aI4638
aI1771
aI1398
aI4741
aI4205
aI9045
aI8331
aI9786
aI2377
aI8792
aI5230
aI1
aI948
aI7846
aI2639
aI2576
aI1086
aI10504
aI337
aI5791
aI7577
aI281
aI6905
aI6110
aI3836
aI4405
aI10624
aI2472
aI3433
aI7989
aI695
aI2813
aI2238
aI1447
aI6603
aI9311
aI1321
aI208
aI7475
aI9743
aI9840
aI2835
aI2442
aI6035
aI8930
aI3221
aI4762
aI261
aI10649
aI5595
aI8942
aI6134
aI722
aI2652
aI4546
aI1208
aI7664
aI3424
aI2644
aI6724
aI6911
aI9015
aI1452
aI8441
aI5544
aI6597
aI880
aI187
aI5674
aI9701
aI5584
aI4226
aI8078
aI458
aI1356
aI3971
aI4626
aI5763
aI10287
aI224
aI2432
aI2233
aI1855
aI7922
aI5558
aI6578
aI10472
aI1881
aI3516
aI9169
aI7401
aI2183
aI7232
aI8220
aI1298
aI8122
aI3744
aI6225
aI9080
aI2052
aI8681
aI8466
aI9037
aI6609
aI7449
aI4898
aI10620
aI1207
aI9553
aI877
aI6944
aI2327
aI3140
aI7082
aI4512
aI7143
aI5792
aI2829
aI9128
aI4894
aI311
aI2962
aI1521
aI7272
aI6299
aI1597
aI485
aI9762
aI863
aI4293
aI8762
aI9571
aI8863
aI829
aI1433
aI3356
aI6764
aI6742
aI5797
aI530
aI8202
aI6023
aI9834
aI5518
aI10517
aI2069
aI9909
aI6638
aI2916
aI8130
aI3624
aI2972
aI8514
aI10319
aI9346
aI8616
aI9467
aI693
aI6213
aI6801
aI10023
aI8398
aI9947
aI343
aI5780
aI6546
aI334
aI9035
aI8060
aI5832
aI8256
aI2257
aI5373
aI2861
aI9274
aI931
aI2230
aI1032
aI10306
aI8960
aI6648
aI10140
aI9778
aI10569
aI8970
aI8848
aI1217
aI8673
aI3415
aI631
aI473
aI9193
aI573
aI5442
aI10052
aI7375
aI5291
aI2482
aI10198
aI6445
aI4887
aI3678
aI5419
aI6278
aI842
aI4466
aI1234
aI7319
aI10353
aI8228
aI8695
aI9131
aI9184
aI6657
aI4602
aI9875
aI10429
aI6394
aI4873
aI7198
aI6984
aI697
aI4631
aI5126
aI6014
aI10220
aI9833
aI10097
aI6324
aI6208
aI218
aI241
aI2796
aI2426
aI10393
aI9669
aI2598
aI811
aI3929
aI1513
aI459
aI5022
aI7765
aI4131
aI1916
aI7473
aI6550
aI1472
aI1977
aI6768
aI3628
aI10385
aI8428
aI9358
aI548
aI1011
aI1820
aI3391
aI4464
aI10622
aI3737
aI5860
aI29
aI2927
aI9362
aI2791
aI9422
aI9882
aI5210
aI3526
aI4736
aI7042
aI7296
aI10421
aI8558
aI5599
aI3809
aI539
aI1990
aI6076
aI1047
aI6389
aI10360
aI8501
aI1301
aI8470
aI8550
aI5383
aI784
aI3890
aI1186
aI8235
aI6319
aI9307
aI7753
aI159
aI7153
aI781
aI5365
aI7491
aI5215
aI6522
aI4457
aI1686
aI9178
aI899
aI7511
aI2041
aI7724
aI5116
aI324
aI6573
aI4018
aI5991
aI1283
aI900
aI2746
aI3594
aI2438
aI5162
aI5955
aI4112
aI5586
aI1857
aI5776
aI5310
aI3609
aI6128
aI5796
aI8634
aI5619
aI6450
aI8729
aI6419
aI35
aI6675
aI655
aI3368
aI10484
aI7190
aI5311
aI7413
aI420
aI4605
aI5617
aI1184
aI8932
aI31
aI7731
aI5101
aI7490
aI1588
aI9924
aI5100
aI9496
aI4147
aI9726
aI9399
aI3707
aI2101
aI2050
aI4646
aI9886
aI6346
aI8194
aI9438
aI3909
aI6754
aI4663
aI4451
aI2063
aI5318
aI10366
aI535
aI528
aI8685
aI5931
aI5764
aI5759
aI153
aI1185
aI1007
aI3749
aI5790
aI7781
aI6785
aI1345
aI2205
aI6491
aI4448
aI4295
aI9226
aI8788
aI6069
aI4471
aI4601
aI9520
aI6659
aI3818
aI6495
aI9378
aI5158
aI6288
aI2953
aI2025
aI542
aI24
aI7518
aI506
aI4787
aI698
aI8633
aI3277
aI5942
aI5540
aI2290
aI617
aI6662
aI4535
aI7523
aI9534
aI6589
aI4013
aI7751
aI10070
aI6706
aI10076
aI7393
aI8991
aI3642
aI5909
aI236
aI1137
aI6961
aI8870
aI8953
aI9353
aI7873
aI5734
aI5566
aI615
aI3215
aI453
aI5547
aI2565
aI8518
aI2963
aI6837
aI946
aI610
aI9687
aI6323
aI1337
aI6748
aI10138
aI5816
aI3006
aI1922
aI812
aI4932
aI605
aI5981
aI4721
aI4256
aI10450
aI8596
aI7827
aI180
aI1383
aI5228
aI403
aI2264
aI3066
aI8850
aI1816
aI4026
aI3172
aI5963
aI6761
aI54
aI1766
aI5167
aI4550
aI8475
aI9668
aI5877
aI2340
aI1249
aI9955
aI4122
aI7994
aI2890
aI3498
aI4057
aI4311
aI4270
aI2035
aI8309
aI2072
aI5499
aI7421
aI4393
aI9763
aI5147
aI2
aI2270
aI7729
aI6793
aI8619
aI8133
aI10073
aI4002
aI4871
aI5175
aI5845
aI3438
aI3412
aI2031
aI2033
aI2994
aI8386
aI3106
aI152
aI4023
aI5559
aI4815
aI6548
aI8418
aI2747
aI2504
aI4513
aI9308
aI10039
aI1411
aI4652
aI3083
aI6079
aI1104
aI5597
aI2699
aI2830
aI6482
aI2997
aI3228
aI3170
aI2581
aI4872
aI4655
aI6850
aI2950
aI10260
aI4549
aI9201
aI9039
aI1524
aI8209
aI6194
aI8123
aI8135
aI3394
aI10563
aI5137
aI8781
aI1527
aI8702
aI8917
aI5875
aI10529
aI8941
aI7531
aI10489
aI10254
aI2405
aI3770
aI2711
aI107
aI2488
aI7912
aI2976
aI9301
aI8230
aI8307
aI3502
aI10599
aI9216
aI2700
aI9316
aI2355
aI179
aI10574
aI746
aI7483
aI7003
aI10446
aI4573
aI6649
aI7015
aI593
aI2573
aI10065
aI5352
aI2240
aI4502
aI1877
aI5642
aI4537
aI748
aI8931
aI1522
aI9234
aI7116
aI9773
aI6479
aI9021
aI6781
aI9685
aI4126
aI9707
aI7356
aI1485
aI2106
aI4824
aI7070
aI9225
aI8585
aI4001
aI10200
aI1463
aI4388
aI865
aI8027
aI5093
aI5319
aI4462
aI5402
aI7600
aI4136
aI10259
aI1520
aI987
aI7768
aI8464
aI9599
aI3902
aI10542
aI6241
aI4858
aI10403
aI5283
aI6722
aI1377
aI10334
aI4080
aI2375
aI9302
aI5870
aI3044
aI2869
aI1754
aI638
aI5133
aI4673
aI7269
aI744
aI9186
aI7977
aI6474
aI7341
aI961
aI8843
aI126
aI9625
aI4740
aI9347
aI4915
aI5111
aI7947
aI8893
aI9634
aI7877
aI9016
aI2966
aI7317
aI9671
aI10346
aI2543
aI2878
aI6590
aI3741
aI4587
aI3583
aI4100
aI635
aI7001
aI8802
aI6942
aI6247
aI1036
aI7227
aI4857
aI7104
aI2592
aI8678
aI5148
aI2937
aI3975
aI2493
aI8092
aI5482
aI8672
aI8032
aI8782
aI7307
aI10358
aI4051
aI7786
aI9368
aI6356
aI9767
aI2023
aI4347
aI993
aI7499
aI1975
aI2515
aI9283
aI387
aI10607
aI6587
aI4838
aI790
aI7686
aI6953
aI8319
aI7075
aI7754
aI1300
aI3998
aI3969
aI8530
aI3592
aI4590
aI8804
aI4534
aI962
aI5299
aI8524
aI9938
aI6049
aI2197
aI1967
aI4473
aI1545
aI2872
aI821
aI8808
aI749
aI5369
aI6203
aI8377
aI8211
aI9853
aI89
aI5464
aI9997
aI5065
aI10199
aI4093
aI3281
aI1110
aI4575
aI3690
aI5326
aI8832
aI6195
aI4265
aI1343
aI9823
aI1267
aI5080
aI4727
aI6442
aI178
aI619
aI2044
aI111
aI9403
aI2870
aI7986
aI3573
aI9464
aI6303
aI777
aI390
aI10553
aI8141
aI3422
aI3205
aI5474
aI3082
aI6065
aI2637
aI3541
aI4101
aI7343
aI8005
aI1868
aI6181
aI7938
aI5105
aI1909
aI4822
aI7016
aI5504
aI6349
aI10225
aI4380
aI2917
aI2354
aI4217
aI4772
aI7022
aI4792
aI9967
aI891
aI6102
aI715
aI100
aI8728
aI3757
aI5423
aI8837
aI2040
aI6449
aI3782
aI3038
aI2446
aI5028
aI1851
aI206
aI1177
aI5099
aI2921
aI2245
aI7571
aI5747
aI9285
aI3760
aI3317
aI9211
aI10466
aI7775
aI9918
aI4540
aI7488
aI5793
aI10004
aI791
aI10049
aI8778
aI6694
aI2292
aI5630
aI3354
aI2687
aI2336
aI8710
aI7972
aI2723
aI2762
aI6170
aI2359
aI9982
aI3919
aI613
aI3102
aI3193
aI2167
aI1382
aI9290
aI6808
aI4808
aI7839
aI3461
aI3920
aI330
aI5757
aI3514
aI1893
aI6469
aI10605
aI7899
aI3367
aI7351
aI9777
aI3803
aI9838
aI4577
aI5159
aI4339
aI8245
aI7214
aI9548
aI497
aI3455
aI8537
aI8661
aI6452
aI1364
aI3217
aI9469
aI4491
aI2512
aI3377
aI3321
aI3142
aI9484
aI1113
aI2789
aI828
aI6350
aI8751
aI2498
aI2038
aI3904
aI5322
aI9071
aI71
aI112
aI283
aI8503
aI8393
aI6292
aI8312
aI5029
aI3168
aI10404
aI9172
aI277
aI7185
aI5865
aI629
aI8189
aI1242
aI7187
aI432
aI1478
aI6599
aI10368
aI9647
aI9333
aI1752
aI8799
aI4210
aI1274
aI4933
aI4424
aI3494
aI10602
aI4731
aI3052
aI4211
aI8391
aI9580
aI7529
aI9801
aI10239
aI4396
aI5485
aI7610
aI1846
aI6527
aI1130
aI8981
aI5731
aI9244
aI9728
aI10230
aI1792
aI7634
aI6727
aI7940
aI6526
aI3887
aI59
aI7713
aI3965
aI3953
aI7273
aI5398
aI3077
aI9748
aI8291
aI642
aI9000
aI5974
aI2389
aI668
aI10585
aI991
aI4636
aI10342
aI8663
aI660
aI6148
aI1806
aI10379
aI2855
aI8552
aI9108
aI1934
aI1166
aI1681
aI5648
aI5380
aI7878
aI9808
aI6584
aI201
aI10503
aI1462
aI9622
aI6401
aI5823
aI7093
aI1946
aI8690
aI9350
aI7242
aI4399
aI5033
aI411
aI5034
aI4382
aI7693
aI4324
aI5274
aI6404
aI9933
aI10137
aI872
aI8200
aI8100
aI1848
aI8185
aI2722
aI9523
aI7487
aI2867
aI789
aI2391
aI6239
aI3223
aI5754
aI9277
aI5119
aI6371
aI3666
aI6803
aI9472
aI6027
aI4726
aI3694
aI4514
aI996
aI9303
aI8783
aI5032
aI1608
aI6598
aI9004
aI8664
aI7014
aI6792
aI6201
aI2842
aI8920
aI5639
aI428
aI5130
aI1670
aI1039
aI6463
aI2964
aI702
aI10202
aI5691
aI10069
aI7278
aI5092
aI2135
aI4678
aI2098
aI5943
aI9999
aI2519
aI4958
aI8706
aI38
aI6938
aI9113
aI6400
aI2933
aI10149
aI4607
aI5270
aI4705
aI3891
aI1061
aI34
aI8725
aI2819
aI5647
aI1781
aI9130
aI7097
aI1189
aI809
aI5076
aI9561
aI3452
aI6272
aI8040
aI6979
aI4201
aI1966
aI9163
aI2293
aI3267
aI1221
aI46
aI5353
aI9560
aI8142
aI1299
aI8703
aI8882
aI8747
aI6003
aI1009
aI2443
aI10609
aI6865
aI5813
aI6641
aI7182
aI6048
aI6977
aI7997
aI6820
aI3156
aI9329
aI7678
aI6338
aI4092
aI1082
aI8572
aI5653
aI9874
aI7937
aI3096
aI7079
aI6410
aI6959
aI10075
aI2967
aI885
aI884
aI6458
aI7866
aI6091
aI1328
aI7898
atp17
.